ARM GAS  C:\Users\nhantt\AppData\Local\Temp\ccXQ0Eud.s 			page 1


   1              		.cpu cortex-m3
   2              		.eabi_attribute 20, 1
   3              		.eabi_attribute 21, 1
   4              		.eabi_attribute 23, 3
   5              		.eabi_attribute 24, 1
   6              		.eabi_attribute 25, 1
   7              		.eabi_attribute 26, 1
   8              		.eabi_attribute 30, 1
   9              		.eabi_attribute 34, 1
  10              		.eabi_attribute 18, 4
  11              		.file	"u8g2_bitmap.c"
  12              		.text
  13              	.Ltext0:
  14              		.cfi_sections	.debug_frame
  15              		.section	.text.u8g2_SetBitmapMode,"ax",%progbits
  16              		.align	1
  17              		.global	u8g2_SetBitmapMode
  18              		.syntax unified
  19              		.thumb
  20              		.thumb_func
  21              		.fpu softvfp
  23              	u8g2_SetBitmapMode:
  24              	.LFB0:
  25              		.file 1 "u8g2/csrc/u8g2_bitmap.c"
   1:u8g2/csrc/u8g2_bitmap.c **** /*
   2:u8g2/csrc/u8g2_bitmap.c **** 
   3:u8g2/csrc/u8g2_bitmap.c ****   u8g2_bitmap.c
   4:u8g2/csrc/u8g2_bitmap.c **** 
   5:u8g2/csrc/u8g2_bitmap.c ****   Universal 8bit Graphics Library (https://github.com/olikraus/u8g2/)
   6:u8g2/csrc/u8g2_bitmap.c **** 
   7:u8g2/csrc/u8g2_bitmap.c ****   Copyright (c) 2016, olikraus@gmail.com
   8:u8g2/csrc/u8g2_bitmap.c ****   All rights reserved.
   9:u8g2/csrc/u8g2_bitmap.c **** 
  10:u8g2/csrc/u8g2_bitmap.c ****   Redistribution and use in source and binary forms, with or without modification, 
  11:u8g2/csrc/u8g2_bitmap.c ****   are permitted provided that the following conditions are met:
  12:u8g2/csrc/u8g2_bitmap.c **** 
  13:u8g2/csrc/u8g2_bitmap.c ****   * Redistributions of source code must retain the above copyright notice, this list 
  14:u8g2/csrc/u8g2_bitmap.c ****     of conditions and the following disclaimer.
  15:u8g2/csrc/u8g2_bitmap.c ****     
  16:u8g2/csrc/u8g2_bitmap.c ****   * Redistributions in binary form must reproduce the above copyright notice, this 
  17:u8g2/csrc/u8g2_bitmap.c ****     list of conditions and the following disclaimer in the documentation and/or other 
  18:u8g2/csrc/u8g2_bitmap.c ****     materials provided with the distribution.
  19:u8g2/csrc/u8g2_bitmap.c **** 
  20:u8g2/csrc/u8g2_bitmap.c ****   THIS SOFTWARE IS PROVIDED BY THE COPYRIGHT HOLDERS AND 
  21:u8g2/csrc/u8g2_bitmap.c ****   CONTRIBUTORS "AS IS" AND ANY EXPRESS OR IMPLIED WARRANTIES, 
  22:u8g2/csrc/u8g2_bitmap.c ****   INCLUDING, BUT NOT LIMITED TO, THE IMPLIED WARRANTIES OF 
  23:u8g2/csrc/u8g2_bitmap.c ****   MERCHANTABILITY AND FITNESS FOR A PARTICULAR PURPOSE ARE 
  24:u8g2/csrc/u8g2_bitmap.c ****   DISCLAIMED. IN NO EVENT SHALL THE COPYRIGHT HOLDER OR 
  25:u8g2/csrc/u8g2_bitmap.c ****   CONTRIBUTORS BE LIABLE FOR ANY DIRECT, INDIRECT, INCIDENTAL, 
  26:u8g2/csrc/u8g2_bitmap.c ****   SPECIAL, EXEMPLARY, OR CONSEQUENTIAL DAMAGES (INCLUDING, BUT 
  27:u8g2/csrc/u8g2_bitmap.c ****   NOT LIMITED TO, PROCUREMENT OF SUBSTITUTE GOODS OR SERVICES; 
  28:u8g2/csrc/u8g2_bitmap.c ****   LOSS OF USE, DATA, OR PROFITS; OR BUSINESS INTERRUPTION) HOWEVER 
  29:u8g2/csrc/u8g2_bitmap.c ****   CAUSED AND ON ANY THEORY OF LIABILITY, WHETHER IN CONTRACT, 
  30:u8g2/csrc/u8g2_bitmap.c ****   STRICT LIABILITY, OR TORT (INCLUDING NEGLIGENCE OR OTHERWISE) 
  31:u8g2/csrc/u8g2_bitmap.c ****   ARISING IN ANY WAY OUT OF THE USE OF THIS SOFTWARE, EVEN IF 
  32:u8g2/csrc/u8g2_bitmap.c ****   ADVISED OF THE POSSIBILITY OF SUCH DAMAGE.  
  33:u8g2/csrc/u8g2_bitmap.c **** 
ARM GAS  C:\Users\nhantt\AppData\Local\Temp\ccXQ0Eud.s 			page 2


  34:u8g2/csrc/u8g2_bitmap.c **** */
  35:u8g2/csrc/u8g2_bitmap.c **** 
  36:u8g2/csrc/u8g2_bitmap.c **** #include "u8g2.h"
  37:u8g2/csrc/u8g2_bitmap.c **** 
  38:u8g2/csrc/u8g2_bitmap.c **** 
  39:u8g2/csrc/u8g2_bitmap.c **** void u8g2_SetBitmapMode(u8g2_t *u8g2, uint8_t is_transparent) {
  26              		.loc 1 39 0
  27              		.cfi_startproc
  28              		@ args = 0, pretend = 0, frame = 0
  29              		@ frame_needed = 0, uses_anonymous_args = 0
  30              		@ link register save eliminated.
  31              	.LVL0:
  40:u8g2/csrc/u8g2_bitmap.c ****   u8g2->bitmap_transparency = is_transparent;
  32              		.loc 1 40 0
  33 0000 80F87C10 		strb	r1, [r0, #124]
  34 0004 7047     		bx	lr
  35              		.cfi_endproc
  36              	.LFE0:
  38              		.section	.text.u8g2_DrawHorizontalBitmap,"ax",%progbits
  39              		.align	1
  40              		.global	u8g2_DrawHorizontalBitmap
  41              		.syntax unified
  42              		.thumb
  43              		.thumb_func
  44              		.fpu softvfp
  46              	u8g2_DrawHorizontalBitmap:
  47              	.LFB1:
  41:u8g2/csrc/u8g2_bitmap.c **** }
  42:u8g2/csrc/u8g2_bitmap.c **** 
  43:u8g2/csrc/u8g2_bitmap.c **** /*
  44:u8g2/csrc/u8g2_bitmap.c ****   x,y 	Position on the display
  45:u8g2/csrc/u8g2_bitmap.c ****   len		Length of bitmap line in pixel. Note: This differs from u8glib which had a bytecount here.
  46:u8g2/csrc/u8g2_bitmap.c ****   b		Pointer to the bitmap line.
  47:u8g2/csrc/u8g2_bitmap.c ****   Only draw pixels which are set.
  48:u8g2/csrc/u8g2_bitmap.c **** */
  49:u8g2/csrc/u8g2_bitmap.c **** 
  50:u8g2/csrc/u8g2_bitmap.c **** void u8g2_DrawHorizontalBitmap(u8g2_t *u8g2, u8g2_uint_t x, u8g2_uint_t y, u8g2_uint_t len, const u
  51:u8g2/csrc/u8g2_bitmap.c **** {
  48              		.loc 1 51 0
  49              		.cfi_startproc
  50              		@ args = 4, pretend = 0, frame = 0
  51              		@ frame_needed = 0, uses_anonymous_args = 0
  52              	.LVL1:
  53 0000 2DE9F04F 		push	{r4, r5, r6, r7, r8, r9, r10, fp, lr}
  54              	.LCFI0:
  55              		.cfi_def_cfa_offset 36
  56              		.cfi_offset 4, -36
  57              		.cfi_offset 5, -32
  58              		.cfi_offset 6, -28
  59              		.cfi_offset 7, -24
  60              		.cfi_offset 8, -20
  61              		.cfi_offset 9, -16
  62              		.cfi_offset 10, -12
  63              		.cfi_offset 11, -8
  64              		.cfi_offset 14, -4
  65 0004 83B0     		sub	sp, sp, #12
  66              	.LCFI1:
ARM GAS  C:\Users\nhantt\AppData\Local\Temp\ccXQ0Eud.s 			page 3


  67              		.cfi_def_cfa_offset 48
  68 0006 8046     		mov	r8, r0
  69 0008 0D46     		mov	r5, r1
  70 000a 9146     		mov	r9, r2
  71 000c 1C46     		mov	r4, r3
  72 000e 0C9F     		ldr	r7, [sp, #48]
  52:u8g2/csrc/u8g2_bitmap.c ****   uint8_t mask;
  53:u8g2/csrc/u8g2_bitmap.c ****   uint8_t color = u8g2->draw_color;
  73              		.loc 1 53 0
  74 0010 90F87DA0 		ldrb	r10, [r0, #125]	@ zero_extendqisi2
  75              	.LVL2:
  54:u8g2/csrc/u8g2_bitmap.c ****   uint8_t ncolor = (color == 0 ? 1 : 0);
  55:u8g2/csrc/u8g2_bitmap.c **** 
  56:u8g2/csrc/u8g2_bitmap.c **** #ifdef U8G2_WITH_INTERSECTION
  57:u8g2/csrc/u8g2_bitmap.c ****   if ( u8g2_IsIntersection(u8g2, x, y, x+len, y+1) == 0 ) 
  76              		.loc 1 57 0
  77 0014 CB18     		adds	r3, r1, r3
  78              	.LVL3:
  79 0016 561C     		adds	r6, r2, #1
  80 0018 F6B2     		uxtb	r6, r6
  81 001a 0096     		str	r6, [sp]
  82 001c DBB2     		uxtb	r3, r3
  83 001e FFF7FEFF 		bl	u8g2_IsIntersection
  84              	.LVL4:
  85 0022 68B3     		cbz	r0, .L2
  86 0024 BAFA8AFB 		clz	fp, r10
  87              	.LVL5:
  88 0028 4FEA5B1B 		lsr	fp, fp, #5
  89              	.LVL6:
  90 002c 8026     		movs	r6, #128
  91 002e 16E0     		b	.L4
  92              	.LVL7:
  93              	.L11:
  58:u8g2/csrc/u8g2_bitmap.c ****     return;
  59:u8g2/csrc/u8g2_bitmap.c **** #endif /* U8G2_WITH_INTERSECTION */
  60:u8g2/csrc/u8g2_bitmap.c ****   
  61:u8g2/csrc/u8g2_bitmap.c ****   mask = 128;
  62:u8g2/csrc/u8g2_bitmap.c ****   while(len > 0)
  63:u8g2/csrc/u8g2_bitmap.c ****   {
  64:u8g2/csrc/u8g2_bitmap.c ****     if ( *b & mask ) {
  65:u8g2/csrc/u8g2_bitmap.c ****       u8g2->draw_color = color;
  94              		.loc 1 65 0
  95 0030 88F87DA0 		strb	r10, [r8, #125]
  66:u8g2/csrc/u8g2_bitmap.c ****       u8g2_DrawHVLine(u8g2, x, y, 1, 0);
  96              		.loc 1 66 0
  97 0034 0023     		movs	r3, #0
  98 0036 0093     		str	r3, [sp]
  99 0038 0123     		movs	r3, #1
 100 003a 4A46     		mov	r2, r9
 101 003c 2946     		mov	r1, r5
 102 003e 4046     		mov	r0, r8
 103 0040 FFF7FEFF 		bl	u8g2_DrawHVLine
 104              	.LVL8:
 105 0044 13E0     		b	.L6
 106              	.L12:
  67:u8g2/csrc/u8g2_bitmap.c ****     } else if ( u8g2->bitmap_transparency == 0 ) {
  68:u8g2/csrc/u8g2_bitmap.c ****       u8g2->draw_color = ncolor;
ARM GAS  C:\Users\nhantt\AppData\Local\Temp\ccXQ0Eud.s 			page 4


 107              		.loc 1 68 0
 108 0046 88F87DB0 		strb	fp, [r8, #125]
  69:u8g2/csrc/u8g2_bitmap.c ****       u8g2_DrawHVLine(u8g2, x, y, 1, 0);
 109              		.loc 1 69 0
 110 004a 0093     		str	r3, [sp]
 111 004c 0123     		movs	r3, #1
 112 004e 4A46     		mov	r2, r9
 113 0050 2946     		mov	r1, r5
 114 0052 4046     		mov	r0, r8
 115 0054 FFF7FEFF 		bl	u8g2_DrawHVLine
 116              	.LVL9:
 117 0058 09E0     		b	.L6
 118              	.LVL10:
 119              	.L7:
  70:u8g2/csrc/u8g2_bitmap.c ****     }
  71:u8g2/csrc/u8g2_bitmap.c **** 
  72:u8g2/csrc/u8g2_bitmap.c ****     x++;
  73:u8g2/csrc/u8g2_bitmap.c ****     mask >>= 1;
  74:u8g2/csrc/u8g2_bitmap.c ****     if ( mask == 0 )
  75:u8g2/csrc/u8g2_bitmap.c ****     {
  76:u8g2/csrc/u8g2_bitmap.c ****       mask = 128;
  77:u8g2/csrc/u8g2_bitmap.c ****       b++;
  78:u8g2/csrc/u8g2_bitmap.c ****     }
  79:u8g2/csrc/u8g2_bitmap.c ****     len--;
 120              		.loc 1 79 0
 121 005a 013C     		subs	r4, r4, #1
 122              	.LVL11:
 123 005c E4B2     		uxtb	r4, r4
 124              	.LVL12:
 125              	.L4:
  62:u8g2/csrc/u8g2_bitmap.c ****   {
 126              		.loc 1 62 0
 127 005e 6CB1     		cbz	r4, .L10
  64:u8g2/csrc/u8g2_bitmap.c ****       u8g2->draw_color = color;
 128              		.loc 1 64 0
 129 0060 3B78     		ldrb	r3, [r7]	@ zero_extendqisi2
 130 0062 1E42     		tst	r6, r3
 131 0064 E4D1     		bne	.L11
  67:u8g2/csrc/u8g2_bitmap.c ****       u8g2->draw_color = ncolor;
 132              		.loc 1 67 0
 133 0066 98F87C30 		ldrb	r3, [r8, #124]	@ zero_extendqisi2
 134 006a 002B     		cmp	r3, #0
 135 006c EBD0     		beq	.L12
 136              	.L6:
  72:u8g2/csrc/u8g2_bitmap.c ****     mask >>= 1;
 137              		.loc 1 72 0
 138 006e 0135     		adds	r5, r5, #1
 139              	.LVL13:
 140 0070 EDB2     		uxtb	r5, r5
 141              	.LVL14:
  74:u8g2/csrc/u8g2_bitmap.c ****     {
 142              		.loc 1 74 0
 143 0072 7608     		lsrs	r6, r6, #1
 144              	.LVL15:
 145 0074 F1D1     		bne	.L7
 146              	.LVL16:
  77:u8g2/csrc/u8g2_bitmap.c ****     }
ARM GAS  C:\Users\nhantt\AppData\Local\Temp\ccXQ0Eud.s 			page 5


 147              		.loc 1 77 0
 148 0076 0137     		adds	r7, r7, #1
 149              	.LVL17:
  76:u8g2/csrc/u8g2_bitmap.c ****       b++;
 150              		.loc 1 76 0
 151 0078 8026     		movs	r6, #128
 152 007a EEE7     		b	.L7
 153              	.LVL18:
 154              	.L10:
  80:u8g2/csrc/u8g2_bitmap.c ****   }
  81:u8g2/csrc/u8g2_bitmap.c ****   u8g2->draw_color = color;
 155              		.loc 1 81 0
 156 007c 88F87DA0 		strb	r10, [r8, #125]
 157              	.LVL19:
 158              	.L2:
  82:u8g2/csrc/u8g2_bitmap.c **** }
 159              		.loc 1 82 0
 160 0080 03B0     		add	sp, sp, #12
 161              	.LCFI2:
 162              		.cfi_def_cfa_offset 36
 163              		@ sp needed
 164 0082 BDE8F08F 		pop	{r4, r5, r6, r7, r8, r9, r10, fp, pc}
 165              		.cfi_endproc
 166              	.LFE1:
 168              		.section	.text.u8g2_DrawBitmap,"ax",%progbits
 169              		.align	1
 170              		.global	u8g2_DrawBitmap
 171              		.syntax unified
 172              		.thumb
 173              		.thumb_func
 174              		.fpu softvfp
 176              	u8g2_DrawBitmap:
 177              	.LFB2:
  83:u8g2/csrc/u8g2_bitmap.c **** 
  84:u8g2/csrc/u8g2_bitmap.c **** 
  85:u8g2/csrc/u8g2_bitmap.c **** /* u8glib compatible bitmap draw function */
  86:u8g2/csrc/u8g2_bitmap.c **** void u8g2_DrawBitmap(u8g2_t *u8g2, u8g2_uint_t x, u8g2_uint_t y, u8g2_uint_t cnt, u8g2_uint_t h, co
  87:u8g2/csrc/u8g2_bitmap.c **** {
 178              		.loc 1 87 0
 179              		.cfi_startproc
 180              		@ args = 8, pretend = 0, frame = 0
 181              		@ frame_needed = 0, uses_anonymous_args = 0
 182              	.LVL20:
 183 0000 2DE9F047 		push	{r4, r5, r6, r7, r8, r9, r10, lr}
 184              	.LCFI3:
 185              		.cfi_def_cfa_offset 32
 186              		.cfi_offset 4, -32
 187              		.cfi_offset 5, -28
 188              		.cfi_offset 6, -24
 189              		.cfi_offset 7, -20
 190              		.cfi_offset 8, -16
 191              		.cfi_offset 9, -12
 192              		.cfi_offset 10, -8
 193              		.cfi_offset 14, -4
 194 0004 82B0     		sub	sp, sp, #8
 195              	.LCFI4:
 196              		.cfi_def_cfa_offset 40
ARM GAS  C:\Users\nhantt\AppData\Local\Temp\ccXQ0Eud.s 			page 6


 197 0006 8246     		mov	r10, r0
 198 0008 8846     		mov	r8, r1
 199 000a 1546     		mov	r5, r2
 200 000c 9946     		mov	r9, r3
 201 000e 9DF82840 		ldrb	r4, [sp, #40]	@ zero_extendqisi2
 202 0012 0B9E     		ldr	r6, [sp, #44]
 203              	.LVL21:
  88:u8g2/csrc/u8g2_bitmap.c ****   u8g2_uint_t w;
  89:u8g2/csrc/u8g2_bitmap.c ****   w = cnt;
  90:u8g2/csrc/u8g2_bitmap.c ****   w *= 8;
 204              		.loc 1 90 0
 205 0014 DF00     		lsls	r7, r3, #3
 206 0016 FFB2     		uxtb	r7, r7
 207              	.LVL22:
  91:u8g2/csrc/u8g2_bitmap.c **** #ifdef U8G2_WITH_INTERSECTION
  92:u8g2/csrc/u8g2_bitmap.c ****   if ( u8g2_IsIntersection(u8g2, x, y, x+w, y+h) == 0 ) 
 208              		.loc 1 92 0
 209 0018 07EB010E 		add	lr, r7, r1
 210 001c 1319     		adds	r3, r2, r4
 211              	.LVL23:
 212 001e DBB2     		uxtb	r3, r3
 213 0020 0093     		str	r3, [sp]
 214 0022 5FFA8EF3 		uxtb	r3, lr
 215 0026 FFF7FEFF 		bl	u8g2_IsIntersection
 216              	.LVL24:
 217 002a 60B9     		cbnz	r0, .L15
 218 002c 0DE0     		b	.L13
 219              	.LVL25:
 220              	.L16:
  93:u8g2/csrc/u8g2_bitmap.c ****     return;
  94:u8g2/csrc/u8g2_bitmap.c **** #endif /* U8G2_WITH_INTERSECTION */
  95:u8g2/csrc/u8g2_bitmap.c ****   
  96:u8g2/csrc/u8g2_bitmap.c ****   while( h > 0 )
  97:u8g2/csrc/u8g2_bitmap.c ****   {
  98:u8g2/csrc/u8g2_bitmap.c ****     u8g2_DrawHorizontalBitmap(u8g2, x, y, w, bitmap);
 221              		.loc 1 98 0
 222 002e 0096     		str	r6, [sp]
 223 0030 3B46     		mov	r3, r7
 224 0032 2A46     		mov	r2, r5
 225 0034 4146     		mov	r1, r8
 226 0036 5046     		mov	r0, r10
 227 0038 FFF7FEFF 		bl	u8g2_DrawHorizontalBitmap
 228              	.LVL26:
  99:u8g2/csrc/u8g2_bitmap.c ****     bitmap += cnt;
 229              		.loc 1 99 0
 230 003c 4E44     		add	r6, r6, r9
 231              	.LVL27:
 100:u8g2/csrc/u8g2_bitmap.c ****     y++;
 232              		.loc 1 100 0
 233 003e 0135     		adds	r5, r5, #1
 234              	.LVL28:
 235 0040 EDB2     		uxtb	r5, r5
 236              	.LVL29:
 101:u8g2/csrc/u8g2_bitmap.c ****     h--;
 237              		.loc 1 101 0
 238 0042 013C     		subs	r4, r4, #1
 239              	.LVL30:
ARM GAS  C:\Users\nhantt\AppData\Local\Temp\ccXQ0Eud.s 			page 7


 240 0044 E4B2     		uxtb	r4, r4
 241              	.LVL31:
 242              	.L15:
  96:u8g2/csrc/u8g2_bitmap.c ****   {
 243              		.loc 1 96 0
 244 0046 002C     		cmp	r4, #0
 245 0048 F1D1     		bne	.L16
 246              	.LVL32:
 247              	.L13:
 102:u8g2/csrc/u8g2_bitmap.c ****   }
 103:u8g2/csrc/u8g2_bitmap.c **** }
 248              		.loc 1 103 0
 249 004a 02B0     		add	sp, sp, #8
 250              	.LCFI5:
 251              		.cfi_def_cfa_offset 32
 252              		@ sp needed
 253 004c BDE8F087 		pop	{r4, r5, r6, r7, r8, r9, r10, pc}
 254              		.cfi_endproc
 255              	.LFE2:
 257              		.section	.text.u8g2_DrawHXBM,"ax",%progbits
 258              		.align	1
 259              		.global	u8g2_DrawHXBM
 260              		.syntax unified
 261              		.thumb
 262              		.thumb_func
 263              		.fpu softvfp
 265              	u8g2_DrawHXBM:
 266              	.LFB3:
 104:u8g2/csrc/u8g2_bitmap.c **** 
 105:u8g2/csrc/u8g2_bitmap.c **** 
 106:u8g2/csrc/u8g2_bitmap.c **** 
 107:u8g2/csrc/u8g2_bitmap.c **** void u8g2_DrawHXBM(u8g2_t *u8g2, u8g2_uint_t x, u8g2_uint_t y, u8g2_uint_t len, const uint8_t *b)
 108:u8g2/csrc/u8g2_bitmap.c **** {
 267              		.loc 1 108 0
 268              		.cfi_startproc
 269              		@ args = 4, pretend = 0, frame = 0
 270              		@ frame_needed = 0, uses_anonymous_args = 0
 271              	.LVL33:
 272 0000 2DE9F04F 		push	{r4, r5, r6, r7, r8, r9, r10, fp, lr}
 273              	.LCFI6:
 274              		.cfi_def_cfa_offset 36
 275              		.cfi_offset 4, -36
 276              		.cfi_offset 5, -32
 277              		.cfi_offset 6, -28
 278              		.cfi_offset 7, -24
 279              		.cfi_offset 8, -20
 280              		.cfi_offset 9, -16
 281              		.cfi_offset 10, -12
 282              		.cfi_offset 11, -8
 283              		.cfi_offset 14, -4
 284 0004 83B0     		sub	sp, sp, #12
 285              	.LCFI7:
 286              		.cfi_def_cfa_offset 48
 287 0006 8046     		mov	r8, r0
 288 0008 0E46     		mov	r6, r1
 289 000a 9146     		mov	r9, r2
 290 000c 1D46     		mov	r5, r3
ARM GAS  C:\Users\nhantt\AppData\Local\Temp\ccXQ0Eud.s 			page 8


 291 000e 0C9F     		ldr	r7, [sp, #48]
 109:u8g2/csrc/u8g2_bitmap.c ****   uint8_t mask;
 110:u8g2/csrc/u8g2_bitmap.c ****   uint8_t color = u8g2->draw_color;
 292              		.loc 1 110 0
 293 0010 90F87DA0 		ldrb	r10, [r0, #125]	@ zero_extendqisi2
 294              	.LVL34:
 111:u8g2/csrc/u8g2_bitmap.c ****   uint8_t ncolor = (color == 0 ? 1 : 0);
 112:u8g2/csrc/u8g2_bitmap.c **** #ifdef U8G2_WITH_INTERSECTION
 113:u8g2/csrc/u8g2_bitmap.c ****   if ( u8g2_IsIntersection(u8g2, x, y, x+len, y+1) == 0 ) 
 295              		.loc 1 113 0
 296 0014 CB18     		adds	r3, r1, r3
 297              	.LVL35:
 298 0016 541C     		adds	r4, r2, #1
 299 0018 E4B2     		uxtb	r4, r4
 300 001a 0094     		str	r4, [sp]
 301 001c DBB2     		uxtb	r3, r3
 302 001e FFF7FEFF 		bl	u8g2_IsIntersection
 303              	.LVL36:
 304 0022 78B3     		cbz	r0, .L18
 305 0024 BAFA8AFB 		clz	fp, r10
 306              	.LVL37:
 307 0028 4FEA5B1B 		lsr	fp, fp, #5
 308              	.LVL38:
 309 002c 0124     		movs	r4, #1
 310 002e 16E0     		b	.L20
 311              	.LVL39:
 312              	.L27:
 114:u8g2/csrc/u8g2_bitmap.c ****     return;
 115:u8g2/csrc/u8g2_bitmap.c **** #endif /* U8G2_WITH_INTERSECTION */
 116:u8g2/csrc/u8g2_bitmap.c ****   
 117:u8g2/csrc/u8g2_bitmap.c ****   mask = 1;
 118:u8g2/csrc/u8g2_bitmap.c ****   while(len > 0) {
 119:u8g2/csrc/u8g2_bitmap.c ****     if ( *b & mask ) {
 120:u8g2/csrc/u8g2_bitmap.c ****       u8g2->draw_color = color;
 313              		.loc 1 120 0
 314 0030 88F87DA0 		strb	r10, [r8, #125]
 121:u8g2/csrc/u8g2_bitmap.c ****       u8g2_DrawHVLine(u8g2, x, y, 1, 0);
 315              		.loc 1 121 0
 316 0034 0023     		movs	r3, #0
 317 0036 0093     		str	r3, [sp]
 318 0038 0123     		movs	r3, #1
 319 003a 4A46     		mov	r2, r9
 320 003c 3146     		mov	r1, r6
 321 003e 4046     		mov	r0, r8
 322 0040 FFF7FEFF 		bl	u8g2_DrawHVLine
 323              	.LVL40:
 324 0044 13E0     		b	.L22
 325              	.L28:
 122:u8g2/csrc/u8g2_bitmap.c ****     } else if ( u8g2->bitmap_transparency == 0 ) {
 123:u8g2/csrc/u8g2_bitmap.c ****       u8g2->draw_color = ncolor;
 326              		.loc 1 123 0
 327 0046 88F87DB0 		strb	fp, [r8, #125]
 124:u8g2/csrc/u8g2_bitmap.c ****       u8g2_DrawHVLine(u8g2, x, y, 1, 0);
 328              		.loc 1 124 0
 329 004a 0093     		str	r3, [sp]
 330 004c 0123     		movs	r3, #1
 331 004e 4A46     		mov	r2, r9
ARM GAS  C:\Users\nhantt\AppData\Local\Temp\ccXQ0Eud.s 			page 9


 332 0050 3146     		mov	r1, r6
 333 0052 4046     		mov	r0, r8
 334 0054 FFF7FEFF 		bl	u8g2_DrawHVLine
 335              	.LVL41:
 336 0058 09E0     		b	.L22
 337              	.LVL42:
 338              	.L23:
 125:u8g2/csrc/u8g2_bitmap.c ****     }
 126:u8g2/csrc/u8g2_bitmap.c ****     x++;
 127:u8g2/csrc/u8g2_bitmap.c ****     mask <<= 1;
 128:u8g2/csrc/u8g2_bitmap.c ****     if ( mask == 0 )
 129:u8g2/csrc/u8g2_bitmap.c ****     {
 130:u8g2/csrc/u8g2_bitmap.c ****       mask = 1;
 131:u8g2/csrc/u8g2_bitmap.c ****       b++;
 132:u8g2/csrc/u8g2_bitmap.c ****     }
 133:u8g2/csrc/u8g2_bitmap.c ****     len--;
 339              		.loc 1 133 0
 340 005a 013D     		subs	r5, r5, #1
 341              	.LVL43:
 342 005c EDB2     		uxtb	r5, r5
 343              	.LVL44:
 344              	.L20:
 118:u8g2/csrc/u8g2_bitmap.c ****     if ( *b & mask ) {
 345              		.loc 1 118 0
 346 005e 7DB1     		cbz	r5, .L26
 119:u8g2/csrc/u8g2_bitmap.c ****       u8g2->draw_color = color;
 347              		.loc 1 119 0
 348 0060 3B78     		ldrb	r3, [r7]	@ zero_extendqisi2
 349 0062 1C42     		tst	r4, r3
 350 0064 E4D1     		bne	.L27
 122:u8g2/csrc/u8g2_bitmap.c ****       u8g2->draw_color = ncolor;
 351              		.loc 1 122 0
 352 0066 98F87C30 		ldrb	r3, [r8, #124]	@ zero_extendqisi2
 353 006a 002B     		cmp	r3, #0
 354 006c EBD0     		beq	.L28
 355              	.L22:
 126:u8g2/csrc/u8g2_bitmap.c ****     mask <<= 1;
 356              		.loc 1 126 0
 357 006e 0136     		adds	r6, r6, #1
 358              	.LVL45:
 359 0070 F6B2     		uxtb	r6, r6
 360              	.LVL46:
 127:u8g2/csrc/u8g2_bitmap.c ****     if ( mask == 0 )
 361              		.loc 1 127 0
 362 0072 6400     		lsls	r4, r4, #1
 363              	.LVL47:
 128:u8g2/csrc/u8g2_bitmap.c ****     {
 364              		.loc 1 128 0
 365 0074 14F0FF04 		ands	r4, r4, #255
 366              	.LVL48:
 367 0078 EFD1     		bne	.L23
 368              	.LVL49:
 131:u8g2/csrc/u8g2_bitmap.c ****     }
 369              		.loc 1 131 0
 370 007a 0137     		adds	r7, r7, #1
 371              	.LVL50:
 130:u8g2/csrc/u8g2_bitmap.c ****       b++;
ARM GAS  C:\Users\nhantt\AppData\Local\Temp\ccXQ0Eud.s 			page 10


 372              		.loc 1 130 0
 373 007c 0124     		movs	r4, #1
 374 007e ECE7     		b	.L23
 375              	.LVL51:
 376              	.L26:
 134:u8g2/csrc/u8g2_bitmap.c ****   }
 135:u8g2/csrc/u8g2_bitmap.c ****   u8g2->draw_color = color;
 377              		.loc 1 135 0
 378 0080 88F87DA0 		strb	r10, [r8, #125]
 379              	.LVL52:
 380              	.L18:
 136:u8g2/csrc/u8g2_bitmap.c **** }
 381              		.loc 1 136 0
 382 0084 03B0     		add	sp, sp, #12
 383              	.LCFI8:
 384              		.cfi_def_cfa_offset 36
 385              		@ sp needed
 386 0086 BDE8F08F 		pop	{r4, r5, r6, r7, r8, r9, r10, fp, pc}
 387              		.cfi_endproc
 388              	.LFE3:
 390              		.section	.text.u8g2_DrawXBM,"ax",%progbits
 391              		.align	1
 392              		.global	u8g2_DrawXBM
 393              		.syntax unified
 394              		.thumb
 395              		.thumb_func
 396              		.fpu softvfp
 398              	u8g2_DrawXBM:
 399              	.LFB4:
 137:u8g2/csrc/u8g2_bitmap.c **** 
 138:u8g2/csrc/u8g2_bitmap.c **** 
 139:u8g2/csrc/u8g2_bitmap.c **** void u8g2_DrawXBM(u8g2_t *u8g2, u8g2_uint_t x, u8g2_uint_t y, u8g2_uint_t w, u8g2_uint_t h, const u
 140:u8g2/csrc/u8g2_bitmap.c **** {
 400              		.loc 1 140 0
 401              		.cfi_startproc
 402              		@ args = 8, pretend = 0, frame = 0
 403              		@ frame_needed = 0, uses_anonymous_args = 0
 404              	.LVL53:
 405 0000 2DE9F047 		push	{r4, r5, r6, r7, r8, r9, r10, lr}
 406              	.LCFI9:
 407              		.cfi_def_cfa_offset 32
 408              		.cfi_offset 4, -32
 409              		.cfi_offset 5, -28
 410              		.cfi_offset 6, -24
 411              		.cfi_offset 7, -20
 412              		.cfi_offset 8, -16
 413              		.cfi_offset 9, -12
 414              		.cfi_offset 10, -8
 415              		.cfi_offset 14, -4
 416 0004 82B0     		sub	sp, sp, #8
 417              	.LCFI10:
 418              		.cfi_def_cfa_offset 40
 419 0006 8246     		mov	r10, r0
 420 0008 8946     		mov	r9, r1
 421 000a 1546     		mov	r5, r2
 422 000c 1F46     		mov	r7, r3
 423 000e 9DF82840 		ldrb	r4, [sp, #40]	@ zero_extendqisi2
ARM GAS  C:\Users\nhantt\AppData\Local\Temp\ccXQ0Eud.s 			page 11


 424 0012 0B9E     		ldr	r6, [sp, #44]
 425              	.LVL54:
 141:u8g2/csrc/u8g2_bitmap.c ****   u8g2_uint_t blen;
 142:u8g2/csrc/u8g2_bitmap.c ****   blen = w;
 143:u8g2/csrc/u8g2_bitmap.c ****   blen += 7;
 426              		.loc 1 143 0
 427 0014 03F10708 		add	r8, r3, #7
 428              	.LVL55:
 144:u8g2/csrc/u8g2_bitmap.c ****   blen >>= 3;
 429              		.loc 1 144 0
 430 0018 C8F3C408 		ubfx	r8, r8, #3, #5
 431              	.LVL56:
 145:u8g2/csrc/u8g2_bitmap.c **** #ifdef U8G2_WITH_INTERSECTION
 146:u8g2/csrc/u8g2_bitmap.c ****   if ( u8g2_IsIntersection(u8g2, x, y, x+w, y+h) == 0 ) 
 432              		.loc 1 146 0
 433 001c 03EB010E 		add	lr, r3, r1
 434 0020 1319     		adds	r3, r2, r4
 435              	.LVL57:
 436 0022 DBB2     		uxtb	r3, r3
 437 0024 0093     		str	r3, [sp]
 438 0026 5FFA8EF3 		uxtb	r3, lr
 439 002a FFF7FEFF 		bl	u8g2_IsIntersection
 440              	.LVL58:
 441 002e 60B9     		cbnz	r0, .L31
 442 0030 0DE0     		b	.L29
 443              	.LVL59:
 444              	.L32:
 147:u8g2/csrc/u8g2_bitmap.c ****     return;
 148:u8g2/csrc/u8g2_bitmap.c **** #endif /* U8G2_WITH_INTERSECTION */
 149:u8g2/csrc/u8g2_bitmap.c ****   
 150:u8g2/csrc/u8g2_bitmap.c ****   while( h > 0 )
 151:u8g2/csrc/u8g2_bitmap.c ****   {
 152:u8g2/csrc/u8g2_bitmap.c ****     u8g2_DrawHXBM(u8g2, x, y, w, bitmap);
 445              		.loc 1 152 0
 446 0032 0096     		str	r6, [sp]
 447 0034 3B46     		mov	r3, r7
 448 0036 2A46     		mov	r2, r5
 449 0038 4946     		mov	r1, r9
 450 003a 5046     		mov	r0, r10
 451 003c FFF7FEFF 		bl	u8g2_DrawHXBM
 452              	.LVL60:
 153:u8g2/csrc/u8g2_bitmap.c ****     bitmap += blen;
 453              		.loc 1 153 0
 454 0040 4644     		add	r6, r6, r8
 455              	.LVL61:
 154:u8g2/csrc/u8g2_bitmap.c ****     y++;
 456              		.loc 1 154 0
 457 0042 0135     		adds	r5, r5, #1
 458              	.LVL62:
 459 0044 EDB2     		uxtb	r5, r5
 460              	.LVL63:
 155:u8g2/csrc/u8g2_bitmap.c ****     h--;
 461              		.loc 1 155 0
 462 0046 013C     		subs	r4, r4, #1
 463              	.LVL64:
 464 0048 E4B2     		uxtb	r4, r4
 465              	.LVL65:
ARM GAS  C:\Users\nhantt\AppData\Local\Temp\ccXQ0Eud.s 			page 12


 466              	.L31:
 150:u8g2/csrc/u8g2_bitmap.c ****   {
 467              		.loc 1 150 0
 468 004a 002C     		cmp	r4, #0
 469 004c F1D1     		bne	.L32
 470              	.LVL66:
 471              	.L29:
 156:u8g2/csrc/u8g2_bitmap.c ****   }
 157:u8g2/csrc/u8g2_bitmap.c **** }
 472              		.loc 1 157 0
 473 004e 02B0     		add	sp, sp, #8
 474              	.LCFI11:
 475              		.cfi_def_cfa_offset 32
 476              		@ sp needed
 477 0050 BDE8F087 		pop	{r4, r5, r6, r7, r8, r9, r10, pc}
 478              		.cfi_endproc
 479              	.LFE4:
 481              		.section	.text.u8g2_DrawHXBMP,"ax",%progbits
 482              		.align	1
 483              		.global	u8g2_DrawHXBMP
 484              		.syntax unified
 485              		.thumb
 486              		.thumb_func
 487              		.fpu softvfp
 489              	u8g2_DrawHXBMP:
 490              	.LFB5:
 158:u8g2/csrc/u8g2_bitmap.c **** 
 159:u8g2/csrc/u8g2_bitmap.c **** 
 160:u8g2/csrc/u8g2_bitmap.c **** 
 161:u8g2/csrc/u8g2_bitmap.c **** 
 162:u8g2/csrc/u8g2_bitmap.c **** 
 163:u8g2/csrc/u8g2_bitmap.c **** 
 164:u8g2/csrc/u8g2_bitmap.c **** void u8g2_DrawHXBMP(u8g2_t *u8g2, u8g2_uint_t x, u8g2_uint_t y, u8g2_uint_t len, const uint8_t *b)
 165:u8g2/csrc/u8g2_bitmap.c **** {
 491              		.loc 1 165 0
 492              		.cfi_startproc
 493              		@ args = 4, pretend = 0, frame = 0
 494              		@ frame_needed = 0, uses_anonymous_args = 0
 495              	.LVL67:
 496 0000 2DE9F04F 		push	{r4, r5, r6, r7, r8, r9, r10, fp, lr}
 497              	.LCFI12:
 498              		.cfi_def_cfa_offset 36
 499              		.cfi_offset 4, -36
 500              		.cfi_offset 5, -32
 501              		.cfi_offset 6, -28
 502              		.cfi_offset 7, -24
 503              		.cfi_offset 8, -20
 504              		.cfi_offset 9, -16
 505              		.cfi_offset 10, -12
 506              		.cfi_offset 11, -8
 507              		.cfi_offset 14, -4
 508 0004 83B0     		sub	sp, sp, #12
 509              	.LCFI13:
 510              		.cfi_def_cfa_offset 48
 511 0006 8046     		mov	r8, r0
 512 0008 0E46     		mov	r6, r1
 513 000a 9146     		mov	r9, r2
ARM GAS  C:\Users\nhantt\AppData\Local\Temp\ccXQ0Eud.s 			page 13


 514 000c 1D46     		mov	r5, r3
 515 000e 0C9F     		ldr	r7, [sp, #48]
 166:u8g2/csrc/u8g2_bitmap.c ****   uint8_t mask;
 167:u8g2/csrc/u8g2_bitmap.c ****   uint8_t color = u8g2->draw_color;
 516              		.loc 1 167 0
 517 0010 90F87DA0 		ldrb	r10, [r0, #125]	@ zero_extendqisi2
 518              	.LVL68:
 168:u8g2/csrc/u8g2_bitmap.c ****   uint8_t ncolor = (color == 0 ? 1 : 0);
 169:u8g2/csrc/u8g2_bitmap.c **** #ifdef U8G2_WITH_INTERSECTION
 170:u8g2/csrc/u8g2_bitmap.c ****   if ( u8g2_IsIntersection(u8g2, x, y, x+len, y+1) == 0 ) 
 519              		.loc 1 170 0
 520 0014 CB18     		adds	r3, r1, r3
 521              	.LVL69:
 522 0016 541C     		adds	r4, r2, #1
 523 0018 E4B2     		uxtb	r4, r4
 524 001a 0094     		str	r4, [sp]
 525 001c DBB2     		uxtb	r3, r3
 526 001e FFF7FEFF 		bl	u8g2_IsIntersection
 527              	.LVL70:
 528 0022 78B3     		cbz	r0, .L34
 529 0024 BAFA8AFB 		clz	fp, r10
 530              	.LVL71:
 531 0028 4FEA5B1B 		lsr	fp, fp, #5
 532              	.LVL72:
 533 002c 0124     		movs	r4, #1
 534 002e 16E0     		b	.L36
 535              	.LVL73:
 536              	.L43:
 171:u8g2/csrc/u8g2_bitmap.c ****     return;
 172:u8g2/csrc/u8g2_bitmap.c **** #endif /* U8G2_WITH_INTERSECTION */
 173:u8g2/csrc/u8g2_bitmap.c ****   
 174:u8g2/csrc/u8g2_bitmap.c ****   mask = 1;
 175:u8g2/csrc/u8g2_bitmap.c ****   while(len > 0)
 176:u8g2/csrc/u8g2_bitmap.c ****   {
 177:u8g2/csrc/u8g2_bitmap.c ****     if( u8x8_pgm_read(b) & mask ) {
 178:u8g2/csrc/u8g2_bitmap.c ****       u8g2->draw_color = color;
 537              		.loc 1 178 0
 538 0030 88F87DA0 		strb	r10, [r8, #125]
 179:u8g2/csrc/u8g2_bitmap.c ****       u8g2_DrawHVLine(u8g2, x, y, 1, 0);
 539              		.loc 1 179 0
 540 0034 0023     		movs	r3, #0
 541 0036 0093     		str	r3, [sp]
 542 0038 0123     		movs	r3, #1
 543 003a 4A46     		mov	r2, r9
 544 003c 3146     		mov	r1, r6
 545 003e 4046     		mov	r0, r8
 546 0040 FFF7FEFF 		bl	u8g2_DrawHVLine
 547              	.LVL74:
 548 0044 13E0     		b	.L38
 549              	.L44:
 180:u8g2/csrc/u8g2_bitmap.c ****     } else if( u8g2->bitmap_transparency == 0 ) {
 181:u8g2/csrc/u8g2_bitmap.c ****       u8g2->draw_color = ncolor;
 550              		.loc 1 181 0
 551 0046 88F87DB0 		strb	fp, [r8, #125]
 182:u8g2/csrc/u8g2_bitmap.c ****       u8g2_DrawHVLine(u8g2, x, y, 1, 0);
 552              		.loc 1 182 0
 553 004a 0093     		str	r3, [sp]
ARM GAS  C:\Users\nhantt\AppData\Local\Temp\ccXQ0Eud.s 			page 14


 554 004c 0123     		movs	r3, #1
 555 004e 4A46     		mov	r2, r9
 556 0050 3146     		mov	r1, r6
 557 0052 4046     		mov	r0, r8
 558 0054 FFF7FEFF 		bl	u8g2_DrawHVLine
 559              	.LVL75:
 560 0058 09E0     		b	.L38
 561              	.LVL76:
 562              	.L39:
 183:u8g2/csrc/u8g2_bitmap.c ****     }
 184:u8g2/csrc/u8g2_bitmap.c ****    
 185:u8g2/csrc/u8g2_bitmap.c ****     x++;
 186:u8g2/csrc/u8g2_bitmap.c ****     mask <<= 1;
 187:u8g2/csrc/u8g2_bitmap.c ****     if ( mask == 0 )
 188:u8g2/csrc/u8g2_bitmap.c ****     {
 189:u8g2/csrc/u8g2_bitmap.c ****       mask = 1;
 190:u8g2/csrc/u8g2_bitmap.c ****       b++;
 191:u8g2/csrc/u8g2_bitmap.c ****     }
 192:u8g2/csrc/u8g2_bitmap.c ****     len--;
 563              		.loc 1 192 0
 564 005a 013D     		subs	r5, r5, #1
 565              	.LVL77:
 566 005c EDB2     		uxtb	r5, r5
 567              	.LVL78:
 568              	.L36:
 175:u8g2/csrc/u8g2_bitmap.c ****   {
 569              		.loc 1 175 0
 570 005e 7DB1     		cbz	r5, .L42
 177:u8g2/csrc/u8g2_bitmap.c ****       u8g2->draw_color = color;
 571              		.loc 1 177 0
 572 0060 3B78     		ldrb	r3, [r7]	@ zero_extendqisi2
 573 0062 1C42     		tst	r4, r3
 574 0064 E4D1     		bne	.L43
 180:u8g2/csrc/u8g2_bitmap.c ****       u8g2->draw_color = ncolor;
 575              		.loc 1 180 0
 576 0066 98F87C30 		ldrb	r3, [r8, #124]	@ zero_extendqisi2
 577 006a 002B     		cmp	r3, #0
 578 006c EBD0     		beq	.L44
 579              	.L38:
 185:u8g2/csrc/u8g2_bitmap.c ****     mask <<= 1;
 580              		.loc 1 185 0
 581 006e 0136     		adds	r6, r6, #1
 582              	.LVL79:
 583 0070 F6B2     		uxtb	r6, r6
 584              	.LVL80:
 186:u8g2/csrc/u8g2_bitmap.c ****     if ( mask == 0 )
 585              		.loc 1 186 0
 586 0072 6400     		lsls	r4, r4, #1
 587              	.LVL81:
 187:u8g2/csrc/u8g2_bitmap.c ****     {
 588              		.loc 1 187 0
 589 0074 14F0FF04 		ands	r4, r4, #255
 590              	.LVL82:
 591 0078 EFD1     		bne	.L39
 592              	.LVL83:
 190:u8g2/csrc/u8g2_bitmap.c ****     }
 593              		.loc 1 190 0
ARM GAS  C:\Users\nhantt\AppData\Local\Temp\ccXQ0Eud.s 			page 15


 594 007a 0137     		adds	r7, r7, #1
 595              	.LVL84:
 189:u8g2/csrc/u8g2_bitmap.c ****       b++;
 596              		.loc 1 189 0
 597 007c 0124     		movs	r4, #1
 598 007e ECE7     		b	.L39
 599              	.LVL85:
 600              	.L42:
 193:u8g2/csrc/u8g2_bitmap.c ****   }
 194:u8g2/csrc/u8g2_bitmap.c ****   u8g2->draw_color = color;
 601              		.loc 1 194 0
 602 0080 88F87DA0 		strb	r10, [r8, #125]
 603              	.LVL86:
 604              	.L34:
 195:u8g2/csrc/u8g2_bitmap.c **** }
 605              		.loc 1 195 0
 606 0084 03B0     		add	sp, sp, #12
 607              	.LCFI14:
 608              		.cfi_def_cfa_offset 36
 609              		@ sp needed
 610 0086 BDE8F08F 		pop	{r4, r5, r6, r7, r8, r9, r10, fp, pc}
 611              		.cfi_endproc
 612              	.LFE5:
 614              		.section	.text.u8g2_DrawXBMP,"ax",%progbits
 615              		.align	1
 616              		.global	u8g2_DrawXBMP
 617              		.syntax unified
 618              		.thumb
 619              		.thumb_func
 620              		.fpu softvfp
 622              	u8g2_DrawXBMP:
 623              	.LFB6:
 196:u8g2/csrc/u8g2_bitmap.c **** 
 197:u8g2/csrc/u8g2_bitmap.c **** 
 198:u8g2/csrc/u8g2_bitmap.c **** void u8g2_DrawXBMP(u8g2_t *u8g2, u8g2_uint_t x, u8g2_uint_t y, u8g2_uint_t w, u8g2_uint_t h, const 
 199:u8g2/csrc/u8g2_bitmap.c **** {
 624              		.loc 1 199 0
 625              		.cfi_startproc
 626              		@ args = 8, pretend = 0, frame = 0
 627              		@ frame_needed = 0, uses_anonymous_args = 0
 628              	.LVL87:
 629 0000 2DE9F047 		push	{r4, r5, r6, r7, r8, r9, r10, lr}
 630              	.LCFI15:
 631              		.cfi_def_cfa_offset 32
 632              		.cfi_offset 4, -32
 633              		.cfi_offset 5, -28
 634              		.cfi_offset 6, -24
 635              		.cfi_offset 7, -20
 636              		.cfi_offset 8, -16
 637              		.cfi_offset 9, -12
 638              		.cfi_offset 10, -8
 639              		.cfi_offset 14, -4
 640 0004 82B0     		sub	sp, sp, #8
 641              	.LCFI16:
 642              		.cfi_def_cfa_offset 40
 643 0006 8246     		mov	r10, r0
 644 0008 8946     		mov	r9, r1
ARM GAS  C:\Users\nhantt\AppData\Local\Temp\ccXQ0Eud.s 			page 16


 645 000a 1546     		mov	r5, r2
 646 000c 1F46     		mov	r7, r3
 647 000e 9DF82840 		ldrb	r4, [sp, #40]	@ zero_extendqisi2
 648 0012 0B9E     		ldr	r6, [sp, #44]
 649              	.LVL88:
 200:u8g2/csrc/u8g2_bitmap.c ****   u8g2_uint_t blen;
 201:u8g2/csrc/u8g2_bitmap.c ****   blen = w;
 202:u8g2/csrc/u8g2_bitmap.c ****   blen += 7;
 650              		.loc 1 202 0
 651 0014 03F10708 		add	r8, r3, #7
 652              	.LVL89:
 203:u8g2/csrc/u8g2_bitmap.c ****   blen >>= 3;
 653              		.loc 1 203 0
 654 0018 C8F3C408 		ubfx	r8, r8, #3, #5
 655              	.LVL90:
 204:u8g2/csrc/u8g2_bitmap.c **** #ifdef U8G2_WITH_INTERSECTION
 205:u8g2/csrc/u8g2_bitmap.c ****   if ( u8g2_IsIntersection(u8g2, x, y, x+w, y+h) == 0 ) 
 656              		.loc 1 205 0
 657 001c 03EB010E 		add	lr, r3, r1
 658 0020 1319     		adds	r3, r2, r4
 659              	.LVL91:
 660 0022 DBB2     		uxtb	r3, r3
 661 0024 0093     		str	r3, [sp]
 662 0026 5FFA8EF3 		uxtb	r3, lr
 663 002a FFF7FEFF 		bl	u8g2_IsIntersection
 664              	.LVL92:
 665 002e 60B9     		cbnz	r0, .L47
 666 0030 0DE0     		b	.L45
 667              	.LVL93:
 668              	.L48:
 206:u8g2/csrc/u8g2_bitmap.c ****     return;
 207:u8g2/csrc/u8g2_bitmap.c **** #endif /* U8G2_WITH_INTERSECTION */
 208:u8g2/csrc/u8g2_bitmap.c ****   
 209:u8g2/csrc/u8g2_bitmap.c ****   while( h > 0 )
 210:u8g2/csrc/u8g2_bitmap.c ****   {
 211:u8g2/csrc/u8g2_bitmap.c ****     u8g2_DrawHXBMP(u8g2, x, y, w, bitmap);
 669              		.loc 1 211 0
 670 0032 0096     		str	r6, [sp]
 671 0034 3B46     		mov	r3, r7
 672 0036 2A46     		mov	r2, r5
 673 0038 4946     		mov	r1, r9
 674 003a 5046     		mov	r0, r10
 675 003c FFF7FEFF 		bl	u8g2_DrawHXBMP
 676              	.LVL94:
 212:u8g2/csrc/u8g2_bitmap.c ****     bitmap += blen;
 677              		.loc 1 212 0
 678 0040 4644     		add	r6, r6, r8
 679              	.LVL95:
 213:u8g2/csrc/u8g2_bitmap.c ****     y++;
 680              		.loc 1 213 0
 681 0042 0135     		adds	r5, r5, #1
 682              	.LVL96:
 683 0044 EDB2     		uxtb	r5, r5
 684              	.LVL97:
 214:u8g2/csrc/u8g2_bitmap.c ****     h--;
 685              		.loc 1 214 0
 686 0046 013C     		subs	r4, r4, #1
ARM GAS  C:\Users\nhantt\AppData\Local\Temp\ccXQ0Eud.s 			page 17


 687              	.LVL98:
 688 0048 E4B2     		uxtb	r4, r4
 689              	.LVL99:
 690              	.L47:
 209:u8g2/csrc/u8g2_bitmap.c ****   {
 691              		.loc 1 209 0
 692 004a 002C     		cmp	r4, #0
 693 004c F1D1     		bne	.L48
 694              	.LVL100:
 695              	.L45:
 215:u8g2/csrc/u8g2_bitmap.c ****   }
 216:u8g2/csrc/u8g2_bitmap.c **** }
 696              		.loc 1 216 0
 697 004e 02B0     		add	sp, sp, #8
 698              	.LCFI17:
 699              		.cfi_def_cfa_offset 32
 700              		@ sp needed
 701 0050 BDE8F087 		pop	{r4, r5, r6, r7, r8, r9, r10, pc}
 702              		.cfi_endproc
 703              	.LFE6:
 705              		.text
 706              	.Letext0:
 707              		.file 2 "c:\\program files (x86)\\gnu tools arm embedded\\6.2 2016q4\\arm-none-eabi\\include\\mach
 708              		.file 3 "c:\\program files (x86)\\gnu tools arm embedded\\6.2 2016q4\\arm-none-eabi\\include\\sys\
 709              		.file 4 "u8g2/csrc/u8x8.h"
 710              		.file 5 "u8g2/csrc/u8g2.h"
ARM GAS  C:\Users\nhantt\AppData\Local\Temp\ccXQ0Eud.s 			page 18

