ARM GAS  C:\Users\nhantt\AppData\Local\Temp\cceaKJNl.s 			page 1


   1              		.cpu cortex-m3
   2              		.eabi_attribute 20, 1
   3              		.eabi_attribute 21, 1
   4              		.eabi_attribute 23, 3
   5              		.eabi_attribute 24, 1
   6              		.eabi_attribute 25, 1
   7              		.eabi_attribute 26, 1
   8              		.eabi_attribute 30, 1
   9              		.eabi_attribute 34, 1
  10              		.eabi_attribute 18, 4
  11              		.file	"usbd_conf.c"
  12              		.text
  13              	.Ltext0:
  14              		.cfi_sections	.debug_frame
  15              		.section	.text.HAL_PCD_MspInit,"ax",%progbits
  16              		.align	1
  17              		.global	HAL_PCD_MspInit
  18              		.syntax unified
  19              		.thumb
  20              		.thumb_func
  21              		.fpu softvfp
  23              	HAL_PCD_MspInit:
  24              	.LFB64:
  25              		.file 1 "Src/usbd_conf.c"
   1:Src/usbd_conf.c **** /**
   2:Src/usbd_conf.c ****   ******************************************************************************
   3:Src/usbd_conf.c ****   * @file           : usbd_conf.c
   4:Src/usbd_conf.c ****   * @version        : v2.0_Cube
   5:Src/usbd_conf.c ****   * @brief          : This file implements the board support package for the USB device library
   6:Src/usbd_conf.c ****   ******************************************************************************
   7:Src/usbd_conf.c ****   * This notice applies to any and all portions of this file
   8:Src/usbd_conf.c ****   * that are not between comment pairs USER CODE BEGIN and
   9:Src/usbd_conf.c ****   * USER CODE END. Other portions of this file, whether 
  10:Src/usbd_conf.c ****   * inserted by the user or by software development tools
  11:Src/usbd_conf.c ****   * are owned by their respective copyright owners.
  12:Src/usbd_conf.c ****   *
  13:Src/usbd_conf.c ****   * Copyright (c) 2019 STMicroelectronics International N.V. 
  14:Src/usbd_conf.c ****   * All rights reserved.
  15:Src/usbd_conf.c ****   *
  16:Src/usbd_conf.c ****   * Redistribution and use in source and binary forms, with or without 
  17:Src/usbd_conf.c ****   * modification, are permitted, provided that the following conditions are met:
  18:Src/usbd_conf.c ****   *
  19:Src/usbd_conf.c ****   * 1. Redistribution of source code must retain the above copyright notice, 
  20:Src/usbd_conf.c ****   *    this list of conditions and the following disclaimer.
  21:Src/usbd_conf.c ****   * 2. Redistributions in binary form must reproduce the above copyright notice,
  22:Src/usbd_conf.c ****   *    this list of conditions and the following disclaimer in the documentation
  23:Src/usbd_conf.c ****   *    and/or other materials provided with the distribution.
  24:Src/usbd_conf.c ****   * 3. Neither the name of STMicroelectronics nor the names of other 
  25:Src/usbd_conf.c ****   *    contributors to this software may be used to endorse or promote products 
  26:Src/usbd_conf.c ****   *    derived from this software without specific written permission.
  27:Src/usbd_conf.c ****   * 4. This software, including modifications and/or derivative works of this 
  28:Src/usbd_conf.c ****   *    software, must execute solely and exclusively on microcontroller or
  29:Src/usbd_conf.c ****   *    microprocessor devices manufactured by or for STMicroelectronics.
  30:Src/usbd_conf.c ****   * 5. Redistribution and use of this software other than as permitted under 
  31:Src/usbd_conf.c ****   *    this license is void and will automatically terminate your rights under 
  32:Src/usbd_conf.c ****   *    this license. 
  33:Src/usbd_conf.c ****   *
ARM GAS  C:\Users\nhantt\AppData\Local\Temp\cceaKJNl.s 			page 2


  34:Src/usbd_conf.c ****   * THIS SOFTWARE IS PROVIDED BY STMICROELECTRONICS AND CONTRIBUTORS "AS IS" 
  35:Src/usbd_conf.c ****   * AND ANY EXPRESS, IMPLIED OR STATUTORY WARRANTIES, INCLUDING, BUT NOT 
  36:Src/usbd_conf.c ****   * LIMITED TO, THE IMPLIED WARRANTIES OF MERCHANTABILITY, FITNESS FOR A 
  37:Src/usbd_conf.c ****   * PARTICULAR PURPOSE AND NON-INFRINGEMENT OF THIRD PARTY INTELLECTUAL PROPERTY
  38:Src/usbd_conf.c ****   * RIGHTS ARE DISCLAIMED TO THE FULLEST EXTENT PERMITTED BY LAW. IN NO EVENT 
  39:Src/usbd_conf.c ****   * SHALL STMICROELECTRONICS OR CONTRIBUTORS BE LIABLE FOR ANY DIRECT, INDIRECT,
  40:Src/usbd_conf.c ****   * INCIDENTAL, SPECIAL, EXEMPLARY, OR CONSEQUENTIAL DAMAGES (INCLUDING, BUT NOT
  41:Src/usbd_conf.c ****   * LIMITED TO, PROCUREMENT OF SUBSTITUTE GOODS OR SERVICES; LOSS OF USE, DATA, 
  42:Src/usbd_conf.c ****   * OR PROFITS; OR BUSINESS INTERRUPTION) HOWEVER CAUSED AND ON ANY THEORY OF 
  43:Src/usbd_conf.c ****   * LIABILITY, WHETHER IN CONTRACT, STRICT LIABILITY, OR TORT (INCLUDING 
  44:Src/usbd_conf.c ****   * NEGLIGENCE OR OTHERWISE) ARISING IN ANY WAY OUT OF THE USE OF THIS SOFTWARE,
  45:Src/usbd_conf.c ****   * EVEN IF ADVISED OF THE POSSIBILITY OF SUCH DAMAGE.
  46:Src/usbd_conf.c ****   *
  47:Src/usbd_conf.c ****   ******************************************************************************
  48:Src/usbd_conf.c ****   */
  49:Src/usbd_conf.c **** 
  50:Src/usbd_conf.c **** /* Includes ------------------------------------------------------------------*/
  51:Src/usbd_conf.c **** #include "stm32f1xx.h"
  52:Src/usbd_conf.c **** #include "stm32f1xx_hal.h"
  53:Src/usbd_conf.c **** #include "usbd_def.h"
  54:Src/usbd_conf.c **** #include "usbd_core.h"
  55:Src/usbd_conf.c **** #include "usbd_cdc.h"
  56:Src/usbd_conf.c **** 
  57:Src/usbd_conf.c **** /* USER CODE BEGIN Includes */
  58:Src/usbd_conf.c **** 
  59:Src/usbd_conf.c **** /* USER CODE END Includes */
  60:Src/usbd_conf.c **** 
  61:Src/usbd_conf.c **** /* Private typedef -----------------------------------------------------------*/
  62:Src/usbd_conf.c **** /* Private define ------------------------------------------------------------*/
  63:Src/usbd_conf.c **** /* Private macro -------------------------------------------------------------*/
  64:Src/usbd_conf.c **** 
  65:Src/usbd_conf.c **** /* USER CODE BEGIN PV */
  66:Src/usbd_conf.c **** /* Private variables ---------------------------------------------------------*/
  67:Src/usbd_conf.c **** 
  68:Src/usbd_conf.c **** /* USER CODE END PV */
  69:Src/usbd_conf.c **** 
  70:Src/usbd_conf.c ****                 PCD_HandleTypeDef hpcd_USB_FS;
  71:Src/usbd_conf.c **** void _Error_Handler(char * file, int line);
  72:Src/usbd_conf.c **** 
  73:Src/usbd_conf.c **** /* USER CODE BEGIN 0 */
  74:Src/usbd_conf.c **** 
  75:Src/usbd_conf.c **** /* USER CODE END 0 */
  76:Src/usbd_conf.c **** 
  77:Src/usbd_conf.c **** /* USER CODE BEGIN PFP */
  78:Src/usbd_conf.c **** /* Private function prototypes -----------------------------------------------*/
  79:Src/usbd_conf.c **** 
  80:Src/usbd_conf.c **** /* USER CODE END PFP */
  81:Src/usbd_conf.c **** 
  82:Src/usbd_conf.c **** /* Private functions ---------------------------------------------------------*/
  83:Src/usbd_conf.c **** 
  84:Src/usbd_conf.c **** /* USER CODE BEGIN 1 */
  85:Src/usbd_conf.c **** 
  86:Src/usbd_conf.c **** /* USER CODE END 1 */
  87:Src/usbd_conf.c **** 
  88:Src/usbd_conf.c **** void HAL_PCDEx_SetConnectionState(PCD_HandleTypeDef *hpcd, uint8_t state);
  89:Src/usbd_conf.c **** 
  90:Src/usbd_conf.c **** /*******************************************************************************
ARM GAS  C:\Users\nhantt\AppData\Local\Temp\cceaKJNl.s 			page 3


  91:Src/usbd_conf.c ****                        LL Driver Callbacks (PCD -> USB Device Library)
  92:Src/usbd_conf.c **** *******************************************************************************/
  93:Src/usbd_conf.c **** /* MSP Init */
  94:Src/usbd_conf.c **** 
  95:Src/usbd_conf.c **** void HAL_PCD_MspInit(PCD_HandleTypeDef* pcdHandle)
  96:Src/usbd_conf.c **** {
  26              		.loc 1 96 0
  27              		.cfi_startproc
  28              		@ args = 0, pretend = 0, frame = 8
  29              		@ frame_needed = 0, uses_anonymous_args = 0
  30              	.LVL0:
  97:Src/usbd_conf.c ****   if(pcdHandle->Instance==USB)
  31              		.loc 1 97 0
  32 0000 0268     		ldr	r2, [r0]
  33 0002 0E4B     		ldr	r3, .L8
  34 0004 9A42     		cmp	r2, r3
  35 0006 00D0     		beq	.L7
  36 0008 7047     		bx	lr
  37              	.L7:
  96:Src/usbd_conf.c ****   if(pcdHandle->Instance==USB)
  38              		.loc 1 96 0
  39 000a 00B5     		push	{lr}
  40              	.LCFI0:
  41              		.cfi_def_cfa_offset 4
  42              		.cfi_offset 14, -4
  43 000c 83B0     		sub	sp, sp, #12
  44              	.LCFI1:
  45              		.cfi_def_cfa_offset 16
  46              	.LBB2:
  98:Src/usbd_conf.c ****   {
  99:Src/usbd_conf.c ****   /* USER CODE BEGIN USB_MspInit 0 */
 100:Src/usbd_conf.c **** 
 101:Src/usbd_conf.c ****   /* USER CODE END USB_MspInit 0 */
 102:Src/usbd_conf.c ****     /* Peripheral clock enable */
 103:Src/usbd_conf.c ****     __HAL_RCC_USB_CLK_ENABLE();
  47              		.loc 1 103 0
  48 000e 03F5DA33 		add	r3, r3, #111616
  49 0012 DA69     		ldr	r2, [r3, #28]
  50 0014 42F40002 		orr	r2, r2, #8388608
  51 0018 DA61     		str	r2, [r3, #28]
  52 001a DB69     		ldr	r3, [r3, #28]
  53 001c 03F40003 		and	r3, r3, #8388608
  54 0020 0193     		str	r3, [sp, #4]
  55 0022 019B     		ldr	r3, [sp, #4]
  56              	.LBE2:
 104:Src/usbd_conf.c **** 
 105:Src/usbd_conf.c ****     /* Peripheral interrupt init */
 106:Src/usbd_conf.c ****     HAL_NVIC_SetPriority(USB_LP_CAN1_RX0_IRQn, 0, 0);
  57              		.loc 1 106 0
  58 0024 0022     		movs	r2, #0
  59 0026 1146     		mov	r1, r2
  60 0028 1420     		movs	r0, #20
  61              	.LVL1:
  62 002a FFF7FEFF 		bl	HAL_NVIC_SetPriority
  63              	.LVL2:
 107:Src/usbd_conf.c ****     HAL_NVIC_EnableIRQ(USB_LP_CAN1_RX0_IRQn);
  64              		.loc 1 107 0
ARM GAS  C:\Users\nhantt\AppData\Local\Temp\cceaKJNl.s 			page 4


  65 002e 1420     		movs	r0, #20
  66 0030 FFF7FEFF 		bl	HAL_NVIC_EnableIRQ
  67              	.LVL3:
 108:Src/usbd_conf.c ****   /* USER CODE BEGIN USB_MspInit 1 */
 109:Src/usbd_conf.c **** 
 110:Src/usbd_conf.c ****   /* USER CODE END USB_MspInit 1 */
 111:Src/usbd_conf.c ****   }
 112:Src/usbd_conf.c **** }
  68              		.loc 1 112 0
  69 0034 03B0     		add	sp, sp, #12
  70              	.LCFI2:
  71              		.cfi_def_cfa_offset 4
  72              		@ sp needed
  73 0036 5DF804FB 		ldr	pc, [sp], #4
  74              	.L9:
  75 003a 00BF     		.align	2
  76              	.L8:
  77 003c 005C0040 		.word	1073765376
  78              		.cfi_endproc
  79              	.LFE64:
  81              		.section	.text.HAL_PCD_MspDeInit,"ax",%progbits
  82              		.align	1
  83              		.global	HAL_PCD_MspDeInit
  84              		.syntax unified
  85              		.thumb
  86              		.thumb_func
  87              		.fpu softvfp
  89              	HAL_PCD_MspDeInit:
  90              	.LFB65:
 113:Src/usbd_conf.c **** 
 114:Src/usbd_conf.c **** void HAL_PCD_MspDeInit(PCD_HandleTypeDef* pcdHandle)
 115:Src/usbd_conf.c **** {
  91              		.loc 1 115 0
  92              		.cfi_startproc
  93              		@ args = 0, pretend = 0, frame = 0
  94              		@ frame_needed = 0, uses_anonymous_args = 0
  95              	.LVL4:
  96 0000 08B5     		push	{r3, lr}
  97              	.LCFI3:
  98              		.cfi_def_cfa_offset 8
  99              		.cfi_offset 3, -8
 100              		.cfi_offset 14, -4
 116:Src/usbd_conf.c ****   if(pcdHandle->Instance==USB)
 101              		.loc 1 116 0
 102 0002 0268     		ldr	r2, [r0]
 103 0004 064B     		ldr	r3, .L14
 104 0006 9A42     		cmp	r2, r3
 105 0008 00D0     		beq	.L13
 106              	.LVL5:
 107              	.L10:
 108 000a 08BD     		pop	{r3, pc}
 109              	.LVL6:
 110              	.L13:
 117:Src/usbd_conf.c ****   {
 118:Src/usbd_conf.c ****   /* USER CODE BEGIN USB_MspDeInit 0 */
 119:Src/usbd_conf.c **** 
 120:Src/usbd_conf.c ****   /* USER CODE END USB_MspDeInit 0 */
ARM GAS  C:\Users\nhantt\AppData\Local\Temp\cceaKJNl.s 			page 5


 121:Src/usbd_conf.c ****     /* Peripheral clock disable */
 122:Src/usbd_conf.c ****     __HAL_RCC_USB_CLK_DISABLE();
 111              		.loc 1 122 0
 112 000c 054A     		ldr	r2, .L14+4
 113 000e D369     		ldr	r3, [r2, #28]
 114 0010 23F40003 		bic	r3, r3, #8388608
 115 0014 D361     		str	r3, [r2, #28]
 123:Src/usbd_conf.c **** 
 124:Src/usbd_conf.c ****     /* Peripheral interrupt Deinit*/
 125:Src/usbd_conf.c ****     HAL_NVIC_DisableIRQ(USB_LP_CAN1_RX0_IRQn);
 116              		.loc 1 125 0
 117 0016 1420     		movs	r0, #20
 118              	.LVL7:
 119 0018 FFF7FEFF 		bl	HAL_NVIC_DisableIRQ
 120              	.LVL8:
 126:Src/usbd_conf.c **** 
 127:Src/usbd_conf.c ****   /* USER CODE BEGIN USB_MspDeInit 1 */
 128:Src/usbd_conf.c **** 
 129:Src/usbd_conf.c ****   /* USER CODE END USB_MspDeInit 1 */
 130:Src/usbd_conf.c ****   }
 131:Src/usbd_conf.c **** }
 121              		.loc 1 131 0
 122 001c F5E7     		b	.L10
 123              	.L15:
 124 001e 00BF     		.align	2
 125              	.L14:
 126 0020 005C0040 		.word	1073765376
 127 0024 00100240 		.word	1073876992
 128              		.cfi_endproc
 129              	.LFE65:
 131              		.section	.text.HAL_PCD_SetupStageCallback,"ax",%progbits
 132              		.align	1
 133              		.global	HAL_PCD_SetupStageCallback
 134              		.syntax unified
 135              		.thumb
 136              		.thumb_func
 137              		.fpu softvfp
 139              	HAL_PCD_SetupStageCallback:
 140              	.LFB66:
 132:Src/usbd_conf.c **** 
 133:Src/usbd_conf.c **** /**
 134:Src/usbd_conf.c ****   * @brief  Setup stage callback
 135:Src/usbd_conf.c ****   * @param  hpcd: PCD handle
 136:Src/usbd_conf.c ****   * @retval None
 137:Src/usbd_conf.c ****   */
 138:Src/usbd_conf.c **** void HAL_PCD_SetupStageCallback(PCD_HandleTypeDef *hpcd)
 139:Src/usbd_conf.c **** {
 141              		.loc 1 139 0
 142              		.cfi_startproc
 143              		@ args = 0, pretend = 0, frame = 0
 144              		@ frame_needed = 0, uses_anonymous_args = 0
 145              	.LVL9:
 146 0000 08B5     		push	{r3, lr}
 147              	.LCFI4:
 148              		.cfi_def_cfa_offset 8
 149              		.cfi_offset 3, -8
 150              		.cfi_offset 14, -4
ARM GAS  C:\Users\nhantt\AppData\Local\Temp\cceaKJNl.s 			page 6


 140:Src/usbd_conf.c ****   USBD_LL_SetupStage((USBD_HandleTypeDef*)hpcd->pData, (uint8_t *)hpcd->Setup);
 151              		.loc 1 140 0
 152 0002 00F22C41 		addw	r1, r0, #1068
 153 0006 D0F85C04 		ldr	r0, [r0, #1116]
 154              	.LVL10:
 155 000a FFF7FEFF 		bl	USBD_LL_SetupStage
 156              	.LVL11:
 157 000e 08BD     		pop	{r3, pc}
 158              		.cfi_endproc
 159              	.LFE66:
 161              		.section	.text.HAL_PCD_DataOutStageCallback,"ax",%progbits
 162              		.align	1
 163              		.global	HAL_PCD_DataOutStageCallback
 164              		.syntax unified
 165              		.thumb
 166              		.thumb_func
 167              		.fpu softvfp
 169              	HAL_PCD_DataOutStageCallback:
 170              	.LFB67:
 141:Src/usbd_conf.c **** }
 142:Src/usbd_conf.c **** 
 143:Src/usbd_conf.c **** /**
 144:Src/usbd_conf.c ****   * @brief  Data Out stage callback.
 145:Src/usbd_conf.c ****   * @param  hpcd: PCD handle
 146:Src/usbd_conf.c ****   * @param  epnum: Endpoint number
 147:Src/usbd_conf.c ****   * @retval None
 148:Src/usbd_conf.c ****   */
 149:Src/usbd_conf.c **** void HAL_PCD_DataOutStageCallback(PCD_HandleTypeDef *hpcd, uint8_t epnum)
 150:Src/usbd_conf.c **** {
 171              		.loc 1 150 0
 172              		.cfi_startproc
 173              		@ args = 0, pretend = 0, frame = 0
 174              		@ frame_needed = 0, uses_anonymous_args = 0
 175              	.LVL12:
 176 0000 08B5     		push	{r3, lr}
 177              	.LCFI5:
 178              		.cfi_def_cfa_offset 8
 179              		.cfi_offset 3, -8
 180              		.cfi_offset 14, -4
 151:Src/usbd_conf.c ****   USBD_LL_DataOutStage((USBD_HandleTypeDef*)hpcd->pData, epnum, hpcd->OUT_ep[epnum].xfer_buff);
 181              		.loc 1 151 0
 182 0002 00EB4113 		add	r3, r0, r1, lsl #5
 183 0006 D3F83C22 		ldr	r2, [r3, #572]
 184 000a D0F85C04 		ldr	r0, [r0, #1116]
 185              	.LVL13:
 186 000e FFF7FEFF 		bl	USBD_LL_DataOutStage
 187              	.LVL14:
 188 0012 08BD     		pop	{r3, pc}
 189              		.cfi_endproc
 190              	.LFE67:
 192              		.section	.text.HAL_PCD_DataInStageCallback,"ax",%progbits
 193              		.align	1
 194              		.global	HAL_PCD_DataInStageCallback
 195              		.syntax unified
 196              		.thumb
 197              		.thumb_func
 198              		.fpu softvfp
ARM GAS  C:\Users\nhantt\AppData\Local\Temp\cceaKJNl.s 			page 7


 200              	HAL_PCD_DataInStageCallback:
 201              	.LFB68:
 152:Src/usbd_conf.c **** }
 153:Src/usbd_conf.c **** 
 154:Src/usbd_conf.c **** /**
 155:Src/usbd_conf.c ****   * @brief  Data In stage callback.
 156:Src/usbd_conf.c ****   * @param  hpcd: PCD handle
 157:Src/usbd_conf.c ****   * @param  epnum: Endpoint number
 158:Src/usbd_conf.c ****   * @retval None
 159:Src/usbd_conf.c ****   */
 160:Src/usbd_conf.c **** void HAL_PCD_DataInStageCallback(PCD_HandleTypeDef *hpcd, uint8_t epnum)
 161:Src/usbd_conf.c **** {
 202              		.loc 1 161 0
 203              		.cfi_startproc
 204              		@ args = 0, pretend = 0, frame = 0
 205              		@ frame_needed = 0, uses_anonymous_args = 0
 206              	.LVL15:
 207 0000 08B5     		push	{r3, lr}
 208              	.LCFI6:
 209              		.cfi_def_cfa_offset 8
 210              		.cfi_offset 3, -8
 211              		.cfi_offset 14, -4
 162:Src/usbd_conf.c ****   USBD_LL_DataInStage((USBD_HandleTypeDef*)hpcd->pData, epnum, hpcd->IN_ep[epnum].xfer_buff);
 212              		.loc 1 162 0
 213 0002 00EB4113 		add	r3, r0, r1, lsl #5
 214 0006 DA6B     		ldr	r2, [r3, #60]
 215 0008 D0F85C04 		ldr	r0, [r0, #1116]
 216              	.LVL16:
 217 000c FFF7FEFF 		bl	USBD_LL_DataInStage
 218              	.LVL17:
 219 0010 08BD     		pop	{r3, pc}
 220              		.cfi_endproc
 221              	.LFE68:
 223              		.section	.text.HAL_PCD_SOFCallback,"ax",%progbits
 224              		.align	1
 225              		.global	HAL_PCD_SOFCallback
 226              		.syntax unified
 227              		.thumb
 228              		.thumb_func
 229              		.fpu softvfp
 231              	HAL_PCD_SOFCallback:
 232              	.LFB69:
 163:Src/usbd_conf.c **** }
 164:Src/usbd_conf.c **** 
 165:Src/usbd_conf.c **** /**
 166:Src/usbd_conf.c ****   * @brief  SOF callback.
 167:Src/usbd_conf.c ****   * @param  hpcd: PCD handle
 168:Src/usbd_conf.c ****   * @retval None
 169:Src/usbd_conf.c ****   */
 170:Src/usbd_conf.c **** void HAL_PCD_SOFCallback(PCD_HandleTypeDef *hpcd)
 171:Src/usbd_conf.c **** {
 233              		.loc 1 171 0
 234              		.cfi_startproc
 235              		@ args = 0, pretend = 0, frame = 0
 236              		@ frame_needed = 0, uses_anonymous_args = 0
 237              	.LVL18:
 238 0000 08B5     		push	{r3, lr}
ARM GAS  C:\Users\nhantt\AppData\Local\Temp\cceaKJNl.s 			page 8


 239              	.LCFI7:
 240              		.cfi_def_cfa_offset 8
 241              		.cfi_offset 3, -8
 242              		.cfi_offset 14, -4
 172:Src/usbd_conf.c ****   USBD_LL_SOF((USBD_HandleTypeDef*)hpcd->pData);
 243              		.loc 1 172 0
 244 0002 D0F85C04 		ldr	r0, [r0, #1116]
 245              	.LVL19:
 246 0006 FFF7FEFF 		bl	USBD_LL_SOF
 247              	.LVL20:
 248 000a 08BD     		pop	{r3, pc}
 249              		.cfi_endproc
 250              	.LFE69:
 252              		.section	.text.HAL_PCD_ResetCallback,"ax",%progbits
 253              		.align	1
 254              		.global	HAL_PCD_ResetCallback
 255              		.syntax unified
 256              		.thumb
 257              		.thumb_func
 258              		.fpu softvfp
 260              	HAL_PCD_ResetCallback:
 261              	.LFB70:
 173:Src/usbd_conf.c **** }
 174:Src/usbd_conf.c **** 
 175:Src/usbd_conf.c **** /**
 176:Src/usbd_conf.c ****   * @brief  Reset callback.
 177:Src/usbd_conf.c ****   * @param  hpcd: PCD handle
 178:Src/usbd_conf.c ****   * @retval None
 179:Src/usbd_conf.c ****   */
 180:Src/usbd_conf.c **** void HAL_PCD_ResetCallback(PCD_HandleTypeDef *hpcd)
 181:Src/usbd_conf.c **** { 
 262              		.loc 1 181 0
 263              		.cfi_startproc
 264              		@ args = 0, pretend = 0, frame = 0
 265              		@ frame_needed = 0, uses_anonymous_args = 0
 266              	.LVL21:
 267 0000 10B5     		push	{r4, lr}
 268              	.LCFI8:
 269              		.cfi_def_cfa_offset 8
 270              		.cfi_offset 4, -8
 271              		.cfi_offset 14, -4
 272 0002 0446     		mov	r4, r0
 273              	.LVL22:
 182:Src/usbd_conf.c ****   USBD_SpeedTypeDef speed = USBD_SPEED_FULL;
 183:Src/usbd_conf.c **** 
 184:Src/usbd_conf.c ****   /* Set USB current speed. */
 185:Src/usbd_conf.c ****   switch (hpcd->Init.speed)
 186:Src/usbd_conf.c ****   {
 187:Src/usbd_conf.c ****   case PCD_SPEED_FULL:
 188:Src/usbd_conf.c ****     speed = USBD_SPEED_FULL;
 189:Src/usbd_conf.c ****     break;
 190:Src/usbd_conf.c **** 	
 191:Src/usbd_conf.c ****   default:
 192:Src/usbd_conf.c ****     speed = USBD_SPEED_FULL;
 193:Src/usbd_conf.c ****     break;    
 194:Src/usbd_conf.c ****   }
 195:Src/usbd_conf.c ****   USBD_LL_SetSpeed((USBD_HandleTypeDef*)hpcd->pData, speed);
ARM GAS  C:\Users\nhantt\AppData\Local\Temp\cceaKJNl.s 			page 9


 274              		.loc 1 195 0
 275 0004 0121     		movs	r1, #1
 276 0006 D0F85C04 		ldr	r0, [r0, #1116]
 277              	.LVL23:
 278 000a FFF7FEFF 		bl	USBD_LL_SetSpeed
 279              	.LVL24:
 196:Src/usbd_conf.c ****   
 197:Src/usbd_conf.c ****   /* Reset Device. */
 198:Src/usbd_conf.c ****   USBD_LL_Reset((USBD_HandleTypeDef*)hpcd->pData);
 280              		.loc 1 198 0
 281 000e D4F85C04 		ldr	r0, [r4, #1116]
 282 0012 FFF7FEFF 		bl	USBD_LL_Reset
 283              	.LVL25:
 284 0016 10BD     		pop	{r4, pc}
 285              		.cfi_endproc
 286              	.LFE70:
 288              		.section	.text.HAL_PCD_SuspendCallback,"ax",%progbits
 289              		.align	1
 290              		.global	HAL_PCD_SuspendCallback
 291              		.syntax unified
 292              		.thumb
 293              		.thumb_func
 294              		.fpu softvfp
 296              	HAL_PCD_SuspendCallback:
 297              	.LFB71:
 199:Src/usbd_conf.c **** }
 200:Src/usbd_conf.c **** 
 201:Src/usbd_conf.c **** /**
 202:Src/usbd_conf.c ****   * @brief  Suspend callback.
 203:Src/usbd_conf.c ****   * When Low power mode is enabled the debug cannot be used (IAR, Keil doesn't support it)
 204:Src/usbd_conf.c ****   * @param  hpcd: PCD handle
 205:Src/usbd_conf.c ****   * @retval None
 206:Src/usbd_conf.c ****   */
 207:Src/usbd_conf.c **** void HAL_PCD_SuspendCallback(PCD_HandleTypeDef *hpcd)
 208:Src/usbd_conf.c **** {
 298              		.loc 1 208 0
 299              		.cfi_startproc
 300              		@ args = 0, pretend = 0, frame = 0
 301              		@ frame_needed = 0, uses_anonymous_args = 0
 302              	.LVL26:
 303 0000 10B5     		push	{r4, lr}
 304              	.LCFI9:
 305              		.cfi_def_cfa_offset 8
 306              		.cfi_offset 4, -8
 307              		.cfi_offset 14, -4
 308 0002 0446     		mov	r4, r0
 209:Src/usbd_conf.c ****   /* Inform USB library that core enters in suspend Mode. */
 210:Src/usbd_conf.c ****   USBD_LL_Suspend((USBD_HandleTypeDef*)hpcd->pData);
 309              		.loc 1 210 0
 310 0004 D0F85C04 		ldr	r0, [r0, #1116]
 311              	.LVL27:
 312 0008 FFF7FEFF 		bl	USBD_LL_Suspend
 313              	.LVL28:
 211:Src/usbd_conf.c ****   /* Enter in STOP mode. */
 212:Src/usbd_conf.c ****   /* USER CODE BEGIN 2 */
 213:Src/usbd_conf.c ****   if (hpcd->Init.low_power_enable)
 314              		.loc 1 213 0
ARM GAS  C:\Users\nhantt\AppData\Local\Temp\cceaKJNl.s 			page 10


 315 000c A369     		ldr	r3, [r4, #24]
 316 000e 23B1     		cbz	r3, .L26
 214:Src/usbd_conf.c ****   {
 215:Src/usbd_conf.c ****     /* Set SLEEPDEEP bit and SleepOnExit of Cortex System Control Register. */
 216:Src/usbd_conf.c ****     SCB->SCR |= (uint32_t)((uint32_t)(SCB_SCR_SLEEPDEEP_Msk | SCB_SCR_SLEEPONEXIT_Msk));
 317              		.loc 1 216 0
 318 0010 024A     		ldr	r2, .L29
 319 0012 1369     		ldr	r3, [r2, #16]
 320 0014 43F00603 		orr	r3, r3, #6
 321 0018 1361     		str	r3, [r2, #16]
 322              	.L26:
 323 001a 10BD     		pop	{r4, pc}
 324              	.LVL29:
 325              	.L30:
 326              		.align	2
 327              	.L29:
 328 001c 00ED00E0 		.word	-536810240
 329              		.cfi_endproc
 330              	.LFE71:
 332              		.section	.text.HAL_PCD_ResumeCallback,"ax",%progbits
 333              		.align	1
 334              		.global	HAL_PCD_ResumeCallback
 335              		.syntax unified
 336              		.thumb
 337              		.thumb_func
 338              		.fpu softvfp
 340              	HAL_PCD_ResumeCallback:
 341              	.LFB72:
 217:Src/usbd_conf.c ****   }
 218:Src/usbd_conf.c ****   /* USER CODE END 2 */
 219:Src/usbd_conf.c **** }
 220:Src/usbd_conf.c **** 
 221:Src/usbd_conf.c **** /**
 222:Src/usbd_conf.c ****   * @brief  Resume callback.
 223:Src/usbd_conf.c ****   * When Low power mode is enabled the debug cannot be used (IAR, Keil doesn't support it)
 224:Src/usbd_conf.c ****   * @param  hpcd: PCD handle
 225:Src/usbd_conf.c ****   * @retval None
 226:Src/usbd_conf.c ****   */
 227:Src/usbd_conf.c **** void HAL_PCD_ResumeCallback(PCD_HandleTypeDef *hpcd)
 228:Src/usbd_conf.c **** {
 342              		.loc 1 228 0
 343              		.cfi_startproc
 344              		@ args = 0, pretend = 0, frame = 0
 345              		@ frame_needed = 0, uses_anonymous_args = 0
 346              	.LVL30:
 347 0000 08B5     		push	{r3, lr}
 348              	.LCFI10:
 349              		.cfi_def_cfa_offset 8
 350              		.cfi_offset 3, -8
 351              		.cfi_offset 14, -4
 229:Src/usbd_conf.c ****   /* USER CODE BEGIN 3 */
 230:Src/usbd_conf.c **** 
 231:Src/usbd_conf.c ****   /* USER CODE END 3 */
 232:Src/usbd_conf.c ****   USBD_LL_Resume((USBD_HandleTypeDef*)hpcd->pData);
 352              		.loc 1 232 0
 353 0002 D0F85C04 		ldr	r0, [r0, #1116]
 354              	.LVL31:
ARM GAS  C:\Users\nhantt\AppData\Local\Temp\cceaKJNl.s 			page 11


 355 0006 FFF7FEFF 		bl	USBD_LL_Resume
 356              	.LVL32:
 357 000a 08BD     		pop	{r3, pc}
 358              		.cfi_endproc
 359              	.LFE72:
 361              		.section	.text.HAL_PCD_ISOOUTIncompleteCallback,"ax",%progbits
 362              		.align	1
 363              		.global	HAL_PCD_ISOOUTIncompleteCallback
 364              		.syntax unified
 365              		.thumb
 366              		.thumb_func
 367              		.fpu softvfp
 369              	HAL_PCD_ISOOUTIncompleteCallback:
 370              	.LFB73:
 233:Src/usbd_conf.c **** }
 234:Src/usbd_conf.c **** 
 235:Src/usbd_conf.c **** /**
 236:Src/usbd_conf.c ****   * @brief  ISOOUTIncomplete callback.
 237:Src/usbd_conf.c ****   * @param  hpcd: PCD handle
 238:Src/usbd_conf.c ****   * @param  epnum: Endpoint number
 239:Src/usbd_conf.c ****   * @retval None
 240:Src/usbd_conf.c ****   */
 241:Src/usbd_conf.c **** void HAL_PCD_ISOOUTIncompleteCallback(PCD_HandleTypeDef *hpcd, uint8_t epnum)
 242:Src/usbd_conf.c **** {
 371              		.loc 1 242 0
 372              		.cfi_startproc
 373              		@ args = 0, pretend = 0, frame = 0
 374              		@ frame_needed = 0, uses_anonymous_args = 0
 375              	.LVL33:
 376 0000 08B5     		push	{r3, lr}
 377              	.LCFI11:
 378              		.cfi_def_cfa_offset 8
 379              		.cfi_offset 3, -8
 380              		.cfi_offset 14, -4
 243:Src/usbd_conf.c ****   USBD_LL_IsoOUTIncomplete((USBD_HandleTypeDef*)hpcd->pData, epnum);
 381              		.loc 1 243 0
 382 0002 D0F85C04 		ldr	r0, [r0, #1116]
 383              	.LVL34:
 384 0006 FFF7FEFF 		bl	USBD_LL_IsoOUTIncomplete
 385              	.LVL35:
 386 000a 08BD     		pop	{r3, pc}
 387              		.cfi_endproc
 388              	.LFE73:
 390              		.section	.text.HAL_PCD_ISOINIncompleteCallback,"ax",%progbits
 391              		.align	1
 392              		.global	HAL_PCD_ISOINIncompleteCallback
 393              		.syntax unified
 394              		.thumb
 395              		.thumb_func
 396              		.fpu softvfp
 398              	HAL_PCD_ISOINIncompleteCallback:
 399              	.LFB74:
 244:Src/usbd_conf.c **** }
 245:Src/usbd_conf.c **** 
 246:Src/usbd_conf.c **** /**
 247:Src/usbd_conf.c ****   * @brief  ISOINIncomplete callback.
 248:Src/usbd_conf.c ****   * @param  hpcd: PCD handle
ARM GAS  C:\Users\nhantt\AppData\Local\Temp\cceaKJNl.s 			page 12


 249:Src/usbd_conf.c ****   * @param  epnum: Endpoint number
 250:Src/usbd_conf.c ****   * @retval None
 251:Src/usbd_conf.c ****   */
 252:Src/usbd_conf.c **** void HAL_PCD_ISOINIncompleteCallback(PCD_HandleTypeDef *hpcd, uint8_t epnum)
 253:Src/usbd_conf.c **** {
 400              		.loc 1 253 0
 401              		.cfi_startproc
 402              		@ args = 0, pretend = 0, frame = 0
 403              		@ frame_needed = 0, uses_anonymous_args = 0
 404              	.LVL36:
 405 0000 08B5     		push	{r3, lr}
 406              	.LCFI12:
 407              		.cfi_def_cfa_offset 8
 408              		.cfi_offset 3, -8
 409              		.cfi_offset 14, -4
 254:Src/usbd_conf.c ****   USBD_LL_IsoINIncomplete((USBD_HandleTypeDef*)hpcd->pData, epnum);
 410              		.loc 1 254 0
 411 0002 D0F85C04 		ldr	r0, [r0, #1116]
 412              	.LVL37:
 413 0006 FFF7FEFF 		bl	USBD_LL_IsoINIncomplete
 414              	.LVL38:
 415 000a 08BD     		pop	{r3, pc}
 416              		.cfi_endproc
 417              	.LFE74:
 419              		.section	.text.HAL_PCD_ConnectCallback,"ax",%progbits
 420              		.align	1
 421              		.global	HAL_PCD_ConnectCallback
 422              		.syntax unified
 423              		.thumb
 424              		.thumb_func
 425              		.fpu softvfp
 427              	HAL_PCD_ConnectCallback:
 428              	.LFB75:
 255:Src/usbd_conf.c **** }
 256:Src/usbd_conf.c **** 
 257:Src/usbd_conf.c **** /**
 258:Src/usbd_conf.c ****   * @brief  Connect callback.
 259:Src/usbd_conf.c ****   * @param  hpcd: PCD handle
 260:Src/usbd_conf.c ****   * @retval None
 261:Src/usbd_conf.c ****   */
 262:Src/usbd_conf.c **** void HAL_PCD_ConnectCallback(PCD_HandleTypeDef *hpcd)
 263:Src/usbd_conf.c **** {
 429              		.loc 1 263 0
 430              		.cfi_startproc
 431              		@ args = 0, pretend = 0, frame = 0
 432              		@ frame_needed = 0, uses_anonymous_args = 0
 433              	.LVL39:
 434 0000 08B5     		push	{r3, lr}
 435              	.LCFI13:
 436              		.cfi_def_cfa_offset 8
 437              		.cfi_offset 3, -8
 438              		.cfi_offset 14, -4
 264:Src/usbd_conf.c ****   USBD_LL_DevConnected((USBD_HandleTypeDef*)hpcd->pData);
 439              		.loc 1 264 0
 440 0002 D0F85C04 		ldr	r0, [r0, #1116]
 441              	.LVL40:
 442 0006 FFF7FEFF 		bl	USBD_LL_DevConnected
ARM GAS  C:\Users\nhantt\AppData\Local\Temp\cceaKJNl.s 			page 13


 443              	.LVL41:
 444 000a 08BD     		pop	{r3, pc}
 445              		.cfi_endproc
 446              	.LFE75:
 448              		.section	.text.HAL_PCD_DisconnectCallback,"ax",%progbits
 449              		.align	1
 450              		.global	HAL_PCD_DisconnectCallback
 451              		.syntax unified
 452              		.thumb
 453              		.thumb_func
 454              		.fpu softvfp
 456              	HAL_PCD_DisconnectCallback:
 457              	.LFB76:
 265:Src/usbd_conf.c **** }
 266:Src/usbd_conf.c **** 
 267:Src/usbd_conf.c **** /**
 268:Src/usbd_conf.c ****   * @brief  Disconnect callback.
 269:Src/usbd_conf.c ****   * @param  hpcd: PCD handle
 270:Src/usbd_conf.c ****   * @retval None
 271:Src/usbd_conf.c ****   */
 272:Src/usbd_conf.c **** void HAL_PCD_DisconnectCallback(PCD_HandleTypeDef *hpcd)
 273:Src/usbd_conf.c **** {
 458              		.loc 1 273 0
 459              		.cfi_startproc
 460              		@ args = 0, pretend = 0, frame = 0
 461              		@ frame_needed = 0, uses_anonymous_args = 0
 462              	.LVL42:
 463 0000 08B5     		push	{r3, lr}
 464              	.LCFI14:
 465              		.cfi_def_cfa_offset 8
 466              		.cfi_offset 3, -8
 467              		.cfi_offset 14, -4
 274:Src/usbd_conf.c ****   USBD_LL_DevDisconnected((USBD_HandleTypeDef*)hpcd->pData);
 468              		.loc 1 274 0
 469 0002 D0F85C04 		ldr	r0, [r0, #1116]
 470              	.LVL43:
 471 0006 FFF7FEFF 		bl	USBD_LL_DevDisconnected
 472              	.LVL44:
 473 000a 08BD     		pop	{r3, pc}
 474              		.cfi_endproc
 475              	.LFE76:
 477              		.section	.text.USBD_LL_Init,"ax",%progbits
 478              		.align	1
 479              		.global	USBD_LL_Init
 480              		.syntax unified
 481              		.thumb
 482              		.thumb_func
 483              		.fpu softvfp
 485              	USBD_LL_Init:
 486              	.LFB77:
 275:Src/usbd_conf.c **** }
 276:Src/usbd_conf.c **** 
 277:Src/usbd_conf.c **** /*******************************************************************************
 278:Src/usbd_conf.c ****                        LL Driver Interface (USB Device Library --> PCD)
 279:Src/usbd_conf.c **** *******************************************************************************/
 280:Src/usbd_conf.c **** 
 281:Src/usbd_conf.c **** /**
ARM GAS  C:\Users\nhantt\AppData\Local\Temp\cceaKJNl.s 			page 14


 282:Src/usbd_conf.c ****   * @brief  Initializes the low level portion of the device driver.
 283:Src/usbd_conf.c ****   * @param  pdev: Device handle
 284:Src/usbd_conf.c ****   * @retval USBD status
 285:Src/usbd_conf.c ****   */
 286:Src/usbd_conf.c **** USBD_StatusTypeDef USBD_LL_Init(USBD_HandleTypeDef *pdev)
 287:Src/usbd_conf.c **** {
 487              		.loc 1 287 0
 488              		.cfi_startproc
 489              		@ args = 0, pretend = 0, frame = 0
 490              		@ frame_needed = 0, uses_anonymous_args = 0
 491              	.LVL45:
 492 0000 10B5     		push	{r4, lr}
 493              	.LCFI15:
 494              		.cfi_def_cfa_offset 8
 495              		.cfi_offset 4, -8
 496              		.cfi_offset 14, -4
 497 0002 0446     		mov	r4, r0
 288:Src/usbd_conf.c ****   /* Init USB Ip. */
 289:Src/usbd_conf.c ****   /* Link the driver to the stack. */
 290:Src/usbd_conf.c ****   hpcd_USB_FS.pData = pdev;
 498              		.loc 1 290 0
 499 0004 2048     		ldr	r0, .L45
 500              	.LVL46:
 501 0006 C0F85C44 		str	r4, [r0, #1116]
 291:Src/usbd_conf.c ****   pdev->pData = &hpcd_USB_FS;
 502              		.loc 1 291 0
 503 000a C4F82002 		str	r0, [r4, #544]
 292:Src/usbd_conf.c **** 
 293:Src/usbd_conf.c ****   hpcd_USB_FS.Instance = USB;
 504              		.loc 1 293 0
 505 000e 1F4B     		ldr	r3, .L45+4
 506 0010 0360     		str	r3, [r0]
 294:Src/usbd_conf.c ****   hpcd_USB_FS.Init.dev_endpoints = 8;
 507              		.loc 1 294 0
 508 0012 0823     		movs	r3, #8
 509 0014 4360     		str	r3, [r0, #4]
 295:Src/usbd_conf.c ****   hpcd_USB_FS.Init.speed = PCD_SPEED_FULL;
 510              		.loc 1 295 0
 511 0016 0223     		movs	r3, #2
 512 0018 8360     		str	r3, [r0, #8]
 296:Src/usbd_conf.c ****   hpcd_USB_FS.Init.ep0_mps = DEP0CTL_MPS_8;
 513              		.loc 1 296 0
 514 001a 0323     		movs	r3, #3
 515 001c C360     		str	r3, [r0, #12]
 297:Src/usbd_conf.c ****   hpcd_USB_FS.Init.low_power_enable = DISABLE;
 516              		.loc 1 297 0
 517 001e 0023     		movs	r3, #0
 518 0020 8361     		str	r3, [r0, #24]
 298:Src/usbd_conf.c ****   hpcd_USB_FS.Init.lpm_enable = DISABLE;
 519              		.loc 1 298 0
 520 0022 C361     		str	r3, [r0, #28]
 299:Src/usbd_conf.c ****   hpcd_USB_FS.Init.battery_charging_enable = DISABLE;
 521              		.loc 1 299 0
 522 0024 0362     		str	r3, [r0, #32]
 300:Src/usbd_conf.c ****   if (HAL_PCD_Init(&hpcd_USB_FS) != HAL_OK)
 523              		.loc 1 300 0
 524 0026 FFF7FEFF 		bl	HAL_PCD_Init
ARM GAS  C:\Users\nhantt\AppData\Local\Temp\cceaKJNl.s 			page 15


 525              	.LVL47:
 526 002a 30BB     		cbnz	r0, .L44
 527              	.L42:
 301:Src/usbd_conf.c ****   {
 302:Src/usbd_conf.c ****     _Error_Handler(__FILE__, __LINE__);
 303:Src/usbd_conf.c ****   }
 304:Src/usbd_conf.c **** 
 305:Src/usbd_conf.c ****   HAL_PCDEx_PMAConfig((PCD_HandleTypeDef*)pdev->pData , 0x00 , PCD_SNG_BUF, 0x18);
 528              		.loc 1 305 0
 529 002c 1823     		movs	r3, #24
 530 002e 0022     		movs	r2, #0
 531 0030 1146     		mov	r1, r2
 532 0032 D4F82002 		ldr	r0, [r4, #544]
 533 0036 FFF7FEFF 		bl	HAL_PCDEx_PMAConfig
 534              	.LVL48:
 306:Src/usbd_conf.c ****   HAL_PCDEx_PMAConfig((PCD_HandleTypeDef*)pdev->pData , 0x80 , PCD_SNG_BUF, 0x58);
 535              		.loc 1 306 0
 536 003a 5823     		movs	r3, #88
 537 003c 0022     		movs	r2, #0
 538 003e 8021     		movs	r1, #128
 539 0040 D4F82002 		ldr	r0, [r4, #544]
 540 0044 FFF7FEFF 		bl	HAL_PCDEx_PMAConfig
 541              	.LVL49:
 307:Src/usbd_conf.c ****   HAL_PCDEx_PMAConfig((PCD_HandleTypeDef*)pdev->pData , 0x81 , PCD_SNG_BUF, 0xC0);
 542              		.loc 1 307 0
 543 0048 C023     		movs	r3, #192
 544 004a 0022     		movs	r2, #0
 545 004c 8121     		movs	r1, #129
 546 004e D4F82002 		ldr	r0, [r4, #544]
 547 0052 FFF7FEFF 		bl	HAL_PCDEx_PMAConfig
 548              	.LVL50:
 308:Src/usbd_conf.c ****   HAL_PCDEx_PMAConfig((PCD_HandleTypeDef*)pdev->pData , 0x01 , PCD_SNG_BUF, 0x110);
 549              		.loc 1 308 0
 550 0056 4FF48873 		mov	r3, #272
 551 005a 0022     		movs	r2, #0
 552 005c 0121     		movs	r1, #1
 553 005e D4F82002 		ldr	r0, [r4, #544]
 554 0062 FFF7FEFF 		bl	HAL_PCDEx_PMAConfig
 555              	.LVL51:
 309:Src/usbd_conf.c ****   HAL_PCDEx_PMAConfig((PCD_HandleTypeDef*)pdev->pData , 0x82 , PCD_SNG_BUF, 0x100);
 556              		.loc 1 309 0
 557 0066 4FF48073 		mov	r3, #256
 558 006a 0022     		movs	r2, #0
 559 006c 8221     		movs	r1, #130
 560 006e D4F82002 		ldr	r0, [r4, #544]
 561 0072 FFF7FEFF 		bl	HAL_PCDEx_PMAConfig
 562              	.LVL52:
 310:Src/usbd_conf.c ****   return USBD_OK;
 311:Src/usbd_conf.c **** }
 563              		.loc 1 311 0
 564 0076 0020     		movs	r0, #0
 565 0078 10BD     		pop	{r4, pc}
 566              	.LVL53:
 567              	.L44:
 302:Src/usbd_conf.c ****   }
 568              		.loc 1 302 0
 569 007a 4FF49771 		mov	r1, #302
ARM GAS  C:\Users\nhantt\AppData\Local\Temp\cceaKJNl.s 			page 16


 570 007e 0448     		ldr	r0, .L45+8
 571 0080 FFF7FEFF 		bl	_Error_Handler
 572              	.LVL54:
 573 0084 D2E7     		b	.L42
 574              	.L46:
 575 0086 00BF     		.align	2
 576              	.L45:
 577 0088 00000000 		.word	hpcd_USB_FS
 578 008c 005C0040 		.word	1073765376
 579 0090 00000000 		.word	.LC0
 580              		.cfi_endproc
 581              	.LFE77:
 583              		.section	.text.USBD_LL_DeInit,"ax",%progbits
 584              		.align	1
 585              		.global	USBD_LL_DeInit
 586              		.syntax unified
 587              		.thumb
 588              		.thumb_func
 589              		.fpu softvfp
 591              	USBD_LL_DeInit:
 592              	.LFB78:
 312:Src/usbd_conf.c **** 
 313:Src/usbd_conf.c **** /**
 314:Src/usbd_conf.c ****   * @brief  De-Initializes the low level portion of the device driver.
 315:Src/usbd_conf.c ****   * @param  pdev: Device handle
 316:Src/usbd_conf.c ****   * @retval USBD status
 317:Src/usbd_conf.c ****   */
 318:Src/usbd_conf.c **** USBD_StatusTypeDef USBD_LL_DeInit(USBD_HandleTypeDef *pdev)
 319:Src/usbd_conf.c **** {
 593              		.loc 1 319 0
 594              		.cfi_startproc
 595              		@ args = 0, pretend = 0, frame = 0
 596              		@ frame_needed = 0, uses_anonymous_args = 0
 597              	.LVL55:
 598 0000 08B5     		push	{r3, lr}
 599              	.LCFI16:
 600              		.cfi_def_cfa_offset 8
 601              		.cfi_offset 3, -8
 602              		.cfi_offset 14, -4
 603              	.LVL56:
 320:Src/usbd_conf.c ****   HAL_StatusTypeDef hal_status = HAL_OK;
 321:Src/usbd_conf.c ****   USBD_StatusTypeDef usb_status = USBD_OK;
 322:Src/usbd_conf.c **** 
 323:Src/usbd_conf.c ****   hal_status = HAL_PCD_DeInit(pdev->pData);
 604              		.loc 1 323 0
 605 0002 D0F82002 		ldr	r0, [r0, #544]
 606              	.LVL57:
 607 0006 FFF7FEFF 		bl	HAL_PCD_DeInit
 608              	.LVL58:
 324:Src/usbd_conf.c **** 
 325:Src/usbd_conf.c ****   switch (hal_status) {
 609              		.loc 1 325 0
 610 000a 18B1     		cbz	r0, .L49
 611 000c 0228     		cmp	r0, #2
 612 000e 03D0     		beq	.L50
 326:Src/usbd_conf.c ****     case HAL_OK :
 327:Src/usbd_conf.c ****       usb_status = USBD_OK;
ARM GAS  C:\Users\nhantt\AppData\Local\Temp\cceaKJNl.s 			page 17


 328:Src/usbd_conf.c ****     break;
 329:Src/usbd_conf.c ****     case HAL_ERROR :
 330:Src/usbd_conf.c ****       usb_status = USBD_FAIL;
 613              		.loc 1 330 0
 614 0010 0220     		movs	r0, #2
 615              	.LVL59:
 331:Src/usbd_conf.c ****     break;
 332:Src/usbd_conf.c ****     case HAL_BUSY :
 333:Src/usbd_conf.c ****       usb_status = USBD_BUSY;
 334:Src/usbd_conf.c ****     break;
 335:Src/usbd_conf.c ****     case HAL_TIMEOUT :
 336:Src/usbd_conf.c ****       usb_status = USBD_FAIL;
 337:Src/usbd_conf.c ****     break;
 338:Src/usbd_conf.c ****     default :
 339:Src/usbd_conf.c ****       usb_status = USBD_FAIL;
 340:Src/usbd_conf.c ****     break;
 341:Src/usbd_conf.c ****   }
 342:Src/usbd_conf.c ****   return usb_status; 
 343:Src/usbd_conf.c **** }
 616              		.loc 1 343 0
 617 0012 08BD     		pop	{r3, pc}
 618              	.LVL60:
 619              	.L49:
 327:Src/usbd_conf.c ****     break;
 620              		.loc 1 327 0
 621 0014 0020     		movs	r0, #0
 622              	.LVL61:
 623 0016 08BD     		pop	{r3, pc}
 624              	.LVL62:
 625              	.L50:
 333:Src/usbd_conf.c ****     break;
 626              		.loc 1 333 0
 627 0018 0120     		movs	r0, #1
 628              	.LVL63:
 334:Src/usbd_conf.c ****     case HAL_TIMEOUT :
 629              		.loc 1 334 0
 630 001a 08BD     		pop	{r3, pc}
 631              		.cfi_endproc
 632              	.LFE78:
 634              		.section	.text.USBD_LL_Start,"ax",%progbits
 635              		.align	1
 636              		.global	USBD_LL_Start
 637              		.syntax unified
 638              		.thumb
 639              		.thumb_func
 640              		.fpu softvfp
 642              	USBD_LL_Start:
 643              	.LFB79:
 344:Src/usbd_conf.c **** 
 345:Src/usbd_conf.c **** /**
 346:Src/usbd_conf.c ****   * @brief  Starts the low level portion of the device driver.
 347:Src/usbd_conf.c ****   * @param  pdev: Device handle
 348:Src/usbd_conf.c ****   * @retval USBD status
 349:Src/usbd_conf.c ****   */
 350:Src/usbd_conf.c **** USBD_StatusTypeDef USBD_LL_Start(USBD_HandleTypeDef *pdev)
 351:Src/usbd_conf.c **** {
 644              		.loc 1 351 0
ARM GAS  C:\Users\nhantt\AppData\Local\Temp\cceaKJNl.s 			page 18


 645              		.cfi_startproc
 646              		@ args = 0, pretend = 0, frame = 0
 647              		@ frame_needed = 0, uses_anonymous_args = 0
 648              	.LVL64:
 649 0000 08B5     		push	{r3, lr}
 650              	.LCFI17:
 651              		.cfi_def_cfa_offset 8
 652              		.cfi_offset 3, -8
 653              		.cfi_offset 14, -4
 654              	.LVL65:
 352:Src/usbd_conf.c ****   HAL_StatusTypeDef hal_status = HAL_OK;
 353:Src/usbd_conf.c ****   USBD_StatusTypeDef usb_status = USBD_OK;
 354:Src/usbd_conf.c ****  
 355:Src/usbd_conf.c ****   hal_status = HAL_PCD_Start(pdev->pData);
 655              		.loc 1 355 0
 656 0002 D0F82002 		ldr	r0, [r0, #544]
 657              	.LVL66:
 658 0006 FFF7FEFF 		bl	HAL_PCD_Start
 659              	.LVL67:
 356:Src/usbd_conf.c ****      
 357:Src/usbd_conf.c ****   switch (hal_status) {
 660              		.loc 1 357 0
 661 000a 18B1     		cbz	r0, .L56
 662 000c 0228     		cmp	r0, #2
 663 000e 03D0     		beq	.L57
 358:Src/usbd_conf.c ****     case HAL_OK :
 359:Src/usbd_conf.c ****       usb_status = USBD_OK;
 360:Src/usbd_conf.c ****     break;
 361:Src/usbd_conf.c ****     case HAL_ERROR :
 362:Src/usbd_conf.c ****       usb_status = USBD_FAIL;
 664              		.loc 1 362 0
 665 0010 0220     		movs	r0, #2
 666              	.LVL68:
 363:Src/usbd_conf.c ****     break;
 364:Src/usbd_conf.c ****     case HAL_BUSY :
 365:Src/usbd_conf.c ****       usb_status = USBD_BUSY;
 366:Src/usbd_conf.c ****     break;
 367:Src/usbd_conf.c ****     case HAL_TIMEOUT :
 368:Src/usbd_conf.c ****       usb_status = USBD_FAIL;
 369:Src/usbd_conf.c ****     break;
 370:Src/usbd_conf.c ****     default :
 371:Src/usbd_conf.c ****       usb_status = USBD_FAIL;
 372:Src/usbd_conf.c ****     break;
 373:Src/usbd_conf.c ****   }
 374:Src/usbd_conf.c ****   return usb_status;
 375:Src/usbd_conf.c **** }
 667              		.loc 1 375 0
 668 0012 08BD     		pop	{r3, pc}
 669              	.LVL69:
 670              	.L56:
 359:Src/usbd_conf.c ****     break;
 671              		.loc 1 359 0
 672 0014 0020     		movs	r0, #0
 673              	.LVL70:
 674 0016 08BD     		pop	{r3, pc}
 675              	.LVL71:
 676              	.L57:
ARM GAS  C:\Users\nhantt\AppData\Local\Temp\cceaKJNl.s 			page 19


 365:Src/usbd_conf.c ****     break;
 677              		.loc 1 365 0
 678 0018 0120     		movs	r0, #1
 679              	.LVL72:
 366:Src/usbd_conf.c ****     case HAL_TIMEOUT :
 680              		.loc 1 366 0
 681 001a 08BD     		pop	{r3, pc}
 682              		.cfi_endproc
 683              	.LFE79:
 685              		.section	.text.USBD_LL_Stop,"ax",%progbits
 686              		.align	1
 687              		.global	USBD_LL_Stop
 688              		.syntax unified
 689              		.thumb
 690              		.thumb_func
 691              		.fpu softvfp
 693              	USBD_LL_Stop:
 694              	.LFB80:
 376:Src/usbd_conf.c **** 
 377:Src/usbd_conf.c **** /**
 378:Src/usbd_conf.c ****   * @brief  Stops the low level portion of the device driver.
 379:Src/usbd_conf.c ****   * @param  pdev: Device handle
 380:Src/usbd_conf.c ****   * @retval USBD status
 381:Src/usbd_conf.c ****   */
 382:Src/usbd_conf.c **** USBD_StatusTypeDef USBD_LL_Stop(USBD_HandleTypeDef *pdev)
 383:Src/usbd_conf.c **** {
 695              		.loc 1 383 0
 696              		.cfi_startproc
 697              		@ args = 0, pretend = 0, frame = 0
 698              		@ frame_needed = 0, uses_anonymous_args = 0
 699              	.LVL73:
 700 0000 08B5     		push	{r3, lr}
 701              	.LCFI18:
 702              		.cfi_def_cfa_offset 8
 703              		.cfi_offset 3, -8
 704              		.cfi_offset 14, -4
 705              	.LVL74:
 384:Src/usbd_conf.c ****   HAL_StatusTypeDef hal_status = HAL_OK;
 385:Src/usbd_conf.c ****   USBD_StatusTypeDef usb_status = USBD_OK;
 386:Src/usbd_conf.c **** 
 387:Src/usbd_conf.c ****   hal_status = HAL_PCD_Stop(pdev->pData);
 706              		.loc 1 387 0
 707 0002 D0F82002 		ldr	r0, [r0, #544]
 708              	.LVL75:
 709 0006 FFF7FEFF 		bl	HAL_PCD_Stop
 710              	.LVL76:
 388:Src/usbd_conf.c **** 
 389:Src/usbd_conf.c ****   switch (hal_status) {
 711              		.loc 1 389 0
 712 000a 18B1     		cbz	r0, .L63
 713 000c 0228     		cmp	r0, #2
 714 000e 03D0     		beq	.L64
 390:Src/usbd_conf.c ****     case HAL_OK :
 391:Src/usbd_conf.c ****       usb_status = USBD_OK;
 392:Src/usbd_conf.c ****     break;
 393:Src/usbd_conf.c ****     case HAL_ERROR :
 394:Src/usbd_conf.c ****       usb_status = USBD_FAIL;
ARM GAS  C:\Users\nhantt\AppData\Local\Temp\cceaKJNl.s 			page 20


 715              		.loc 1 394 0
 716 0010 0220     		movs	r0, #2
 717              	.LVL77:
 395:Src/usbd_conf.c ****     break;
 396:Src/usbd_conf.c ****     case HAL_BUSY :
 397:Src/usbd_conf.c ****       usb_status = USBD_BUSY;
 398:Src/usbd_conf.c ****     break;
 399:Src/usbd_conf.c ****     case HAL_TIMEOUT :
 400:Src/usbd_conf.c ****       usb_status = USBD_FAIL;
 401:Src/usbd_conf.c ****     break;
 402:Src/usbd_conf.c ****     default :
 403:Src/usbd_conf.c ****       usb_status = USBD_FAIL;
 404:Src/usbd_conf.c ****     break;
 405:Src/usbd_conf.c ****   }
 406:Src/usbd_conf.c ****   return usb_status;
 407:Src/usbd_conf.c **** }
 718              		.loc 1 407 0
 719 0012 08BD     		pop	{r3, pc}
 720              	.LVL78:
 721              	.L63:
 391:Src/usbd_conf.c ****     break;
 722              		.loc 1 391 0
 723 0014 0020     		movs	r0, #0
 724              	.LVL79:
 725 0016 08BD     		pop	{r3, pc}
 726              	.LVL80:
 727              	.L64:
 397:Src/usbd_conf.c ****     break;
 728              		.loc 1 397 0
 729 0018 0120     		movs	r0, #1
 730              	.LVL81:
 398:Src/usbd_conf.c ****     case HAL_TIMEOUT :
 731              		.loc 1 398 0
 732 001a 08BD     		pop	{r3, pc}
 733              		.cfi_endproc
 734              	.LFE80:
 736              		.section	.text.USBD_LL_OpenEP,"ax",%progbits
 737              		.align	1
 738              		.global	USBD_LL_OpenEP
 739              		.syntax unified
 740              		.thumb
 741              		.thumb_func
 742              		.fpu softvfp
 744              	USBD_LL_OpenEP:
 745              	.LFB81:
 408:Src/usbd_conf.c **** 
 409:Src/usbd_conf.c **** /**
 410:Src/usbd_conf.c ****   * @brief  Opens an endpoint of the low level driver.
 411:Src/usbd_conf.c ****   * @param  pdev: Device handle
 412:Src/usbd_conf.c ****   * @param  ep_addr: Endpoint number
 413:Src/usbd_conf.c ****   * @param  ep_type: Endpoint type
 414:Src/usbd_conf.c ****   * @param  ep_mps: Endpoint max packet size
 415:Src/usbd_conf.c ****   * @retval USBD status
 416:Src/usbd_conf.c ****   */
 417:Src/usbd_conf.c **** USBD_StatusTypeDef USBD_LL_OpenEP(USBD_HandleTypeDef *pdev, uint8_t ep_addr, uint8_t ep_type, uint1
 418:Src/usbd_conf.c **** {
 746              		.loc 1 418 0
ARM GAS  C:\Users\nhantt\AppData\Local\Temp\cceaKJNl.s 			page 21


 747              		.cfi_startproc
 748              		@ args = 0, pretend = 0, frame = 0
 749              		@ frame_needed = 0, uses_anonymous_args = 0
 750              	.LVL82:
 751 0000 10B5     		push	{r4, lr}
 752              	.LCFI19:
 753              		.cfi_def_cfa_offset 8
 754              		.cfi_offset 4, -8
 755              		.cfi_offset 14, -4
 756 0002 1C46     		mov	r4, r3
 757              	.LVL83:
 419:Src/usbd_conf.c ****   HAL_StatusTypeDef hal_status = HAL_OK;
 420:Src/usbd_conf.c ****   USBD_StatusTypeDef usb_status = USBD_OK;
 421:Src/usbd_conf.c **** 
 422:Src/usbd_conf.c ****   hal_status = HAL_PCD_EP_Open(pdev->pData, ep_addr, ep_mps, ep_type);
 758              		.loc 1 422 0
 759 0004 1346     		mov	r3, r2
 760              	.LVL84:
 761 0006 2246     		mov	r2, r4
 762              	.LVL85:
 763 0008 D0F82002 		ldr	r0, [r0, #544]
 764              	.LVL86:
 765 000c FFF7FEFF 		bl	HAL_PCD_EP_Open
 766              	.LVL87:
 423:Src/usbd_conf.c **** 
 424:Src/usbd_conf.c ****   switch (hal_status) {
 767              		.loc 1 424 0
 768 0010 18B1     		cbz	r0, .L70
 769 0012 0228     		cmp	r0, #2
 770 0014 03D0     		beq	.L71
 425:Src/usbd_conf.c ****     case HAL_OK :
 426:Src/usbd_conf.c ****       usb_status = USBD_OK;
 427:Src/usbd_conf.c ****     break;
 428:Src/usbd_conf.c ****     case HAL_ERROR :
 429:Src/usbd_conf.c ****       usb_status = USBD_FAIL;
 771              		.loc 1 429 0
 772 0016 0220     		movs	r0, #2
 773              	.LVL88:
 430:Src/usbd_conf.c ****     break;
 431:Src/usbd_conf.c ****     case HAL_BUSY :
 432:Src/usbd_conf.c ****       usb_status = USBD_BUSY;
 433:Src/usbd_conf.c ****     break;
 434:Src/usbd_conf.c ****     case HAL_TIMEOUT :
 435:Src/usbd_conf.c ****       usb_status = USBD_FAIL;
 436:Src/usbd_conf.c ****     break;
 437:Src/usbd_conf.c ****     default :
 438:Src/usbd_conf.c ****       usb_status = USBD_FAIL;
 439:Src/usbd_conf.c ****     break;
 440:Src/usbd_conf.c ****   }
 441:Src/usbd_conf.c ****   return usb_status;
 442:Src/usbd_conf.c **** }
 774              		.loc 1 442 0
 775 0018 10BD     		pop	{r4, pc}
 776              	.LVL89:
 777              	.L70:
 426:Src/usbd_conf.c ****     break;
 778              		.loc 1 426 0
ARM GAS  C:\Users\nhantt\AppData\Local\Temp\cceaKJNl.s 			page 22


 779 001a 0020     		movs	r0, #0
 780              	.LVL90:
 781 001c 10BD     		pop	{r4, pc}
 782              	.LVL91:
 783              	.L71:
 432:Src/usbd_conf.c ****     break;
 784              		.loc 1 432 0
 785 001e 0120     		movs	r0, #1
 786              	.LVL92:
 433:Src/usbd_conf.c ****     case HAL_TIMEOUT :
 787              		.loc 1 433 0
 788 0020 10BD     		pop	{r4, pc}
 789              		.cfi_endproc
 790              	.LFE81:
 792              		.section	.text.USBD_LL_CloseEP,"ax",%progbits
 793              		.align	1
 794              		.global	USBD_LL_CloseEP
 795              		.syntax unified
 796              		.thumb
 797              		.thumb_func
 798              		.fpu softvfp
 800              	USBD_LL_CloseEP:
 801              	.LFB82:
 443:Src/usbd_conf.c **** 
 444:Src/usbd_conf.c **** /**
 445:Src/usbd_conf.c ****   * @brief  Closes an endpoint of the low level driver.
 446:Src/usbd_conf.c ****   * @param  pdev: Device handle
 447:Src/usbd_conf.c ****   * @param  ep_addr: Endpoint number
 448:Src/usbd_conf.c ****   * @retval USBD status
 449:Src/usbd_conf.c ****   */
 450:Src/usbd_conf.c **** USBD_StatusTypeDef USBD_LL_CloseEP(USBD_HandleTypeDef *pdev, uint8_t ep_addr)
 451:Src/usbd_conf.c **** {
 802              		.loc 1 451 0
 803              		.cfi_startproc
 804              		@ args = 0, pretend = 0, frame = 0
 805              		@ frame_needed = 0, uses_anonymous_args = 0
 806              	.LVL93:
 807 0000 08B5     		push	{r3, lr}
 808              	.LCFI20:
 809              		.cfi_def_cfa_offset 8
 810              		.cfi_offset 3, -8
 811              		.cfi_offset 14, -4
 812              	.LVL94:
 452:Src/usbd_conf.c ****   HAL_StatusTypeDef hal_status = HAL_OK;
 453:Src/usbd_conf.c ****   USBD_StatusTypeDef usb_status = USBD_OK;
 454:Src/usbd_conf.c ****   
 455:Src/usbd_conf.c ****   hal_status = HAL_PCD_EP_Close(pdev->pData, ep_addr);
 813              		.loc 1 455 0
 814 0002 D0F82002 		ldr	r0, [r0, #544]
 815              	.LVL95:
 816 0006 FFF7FEFF 		bl	HAL_PCD_EP_Close
 817              	.LVL96:
 456:Src/usbd_conf.c ****       
 457:Src/usbd_conf.c ****   switch (hal_status) {
 818              		.loc 1 457 0
 819 000a 18B1     		cbz	r0, .L77
 820 000c 0228     		cmp	r0, #2
ARM GAS  C:\Users\nhantt\AppData\Local\Temp\cceaKJNl.s 			page 23


 821 000e 03D0     		beq	.L78
 458:Src/usbd_conf.c ****     case HAL_OK :
 459:Src/usbd_conf.c ****       usb_status = USBD_OK;
 460:Src/usbd_conf.c ****     break;
 461:Src/usbd_conf.c ****     case HAL_ERROR :
 462:Src/usbd_conf.c ****       usb_status = USBD_FAIL;
 822              		.loc 1 462 0
 823 0010 0220     		movs	r0, #2
 824              	.LVL97:
 463:Src/usbd_conf.c ****     break;
 464:Src/usbd_conf.c ****     case HAL_BUSY :
 465:Src/usbd_conf.c ****       usb_status = USBD_BUSY;
 466:Src/usbd_conf.c ****     break;
 467:Src/usbd_conf.c ****     case HAL_TIMEOUT :
 468:Src/usbd_conf.c ****       usb_status = USBD_FAIL;
 469:Src/usbd_conf.c ****     break;
 470:Src/usbd_conf.c ****     default :
 471:Src/usbd_conf.c ****       usb_status = USBD_FAIL;
 472:Src/usbd_conf.c ****     break;
 473:Src/usbd_conf.c ****   }
 474:Src/usbd_conf.c ****   return usb_status;  
 475:Src/usbd_conf.c **** }
 825              		.loc 1 475 0
 826 0012 08BD     		pop	{r3, pc}
 827              	.LVL98:
 828              	.L77:
 459:Src/usbd_conf.c ****     break;
 829              		.loc 1 459 0
 830 0014 0020     		movs	r0, #0
 831              	.LVL99:
 832 0016 08BD     		pop	{r3, pc}
 833              	.LVL100:
 834              	.L78:
 465:Src/usbd_conf.c ****     break;
 835              		.loc 1 465 0
 836 0018 0120     		movs	r0, #1
 837              	.LVL101:
 466:Src/usbd_conf.c ****     case HAL_TIMEOUT :
 838              		.loc 1 466 0
 839 001a 08BD     		pop	{r3, pc}
 840              		.cfi_endproc
 841              	.LFE82:
 843              		.section	.text.USBD_LL_FlushEP,"ax",%progbits
 844              		.align	1
 845              		.global	USBD_LL_FlushEP
 846              		.syntax unified
 847              		.thumb
 848              		.thumb_func
 849              		.fpu softvfp
 851              	USBD_LL_FlushEP:
 852              	.LFB83:
 476:Src/usbd_conf.c **** 
 477:Src/usbd_conf.c **** /**
 478:Src/usbd_conf.c ****   * @brief  Flushes an endpoint of the Low Level Driver.
 479:Src/usbd_conf.c ****   * @param  pdev: Device handle
 480:Src/usbd_conf.c ****   * @param  ep_addr: Endpoint number
 481:Src/usbd_conf.c ****   * @retval USBD status
ARM GAS  C:\Users\nhantt\AppData\Local\Temp\cceaKJNl.s 			page 24


 482:Src/usbd_conf.c ****   */
 483:Src/usbd_conf.c **** USBD_StatusTypeDef USBD_LL_FlushEP(USBD_HandleTypeDef *pdev, uint8_t ep_addr)
 484:Src/usbd_conf.c **** {
 853              		.loc 1 484 0
 854              		.cfi_startproc
 855              		@ args = 0, pretend = 0, frame = 0
 856              		@ frame_needed = 0, uses_anonymous_args = 0
 857              	.LVL102:
 858 0000 08B5     		push	{r3, lr}
 859              	.LCFI21:
 860              		.cfi_def_cfa_offset 8
 861              		.cfi_offset 3, -8
 862              		.cfi_offset 14, -4
 863              	.LVL103:
 485:Src/usbd_conf.c ****   HAL_StatusTypeDef hal_status = HAL_OK;
 486:Src/usbd_conf.c ****   USBD_StatusTypeDef usb_status = USBD_OK;
 487:Src/usbd_conf.c ****   
 488:Src/usbd_conf.c ****   hal_status = HAL_PCD_EP_Flush(pdev->pData, ep_addr);
 864              		.loc 1 488 0
 865 0002 D0F82002 		ldr	r0, [r0, #544]
 866              	.LVL104:
 867 0006 FFF7FEFF 		bl	HAL_PCD_EP_Flush
 868              	.LVL105:
 489:Src/usbd_conf.c ****       
 490:Src/usbd_conf.c ****   switch (hal_status) {
 869              		.loc 1 490 0
 870 000a 18B1     		cbz	r0, .L84
 871 000c 0228     		cmp	r0, #2
 872 000e 03D0     		beq	.L85
 491:Src/usbd_conf.c ****     case HAL_OK :
 492:Src/usbd_conf.c ****       usb_status = USBD_OK;
 493:Src/usbd_conf.c ****     break;
 494:Src/usbd_conf.c ****     case HAL_ERROR :
 495:Src/usbd_conf.c ****       usb_status = USBD_FAIL;
 873              		.loc 1 495 0
 874 0010 0220     		movs	r0, #2
 875              	.LVL106:
 496:Src/usbd_conf.c ****     break;
 497:Src/usbd_conf.c ****     case HAL_BUSY :
 498:Src/usbd_conf.c ****       usb_status = USBD_BUSY;
 499:Src/usbd_conf.c ****     break;
 500:Src/usbd_conf.c ****     case HAL_TIMEOUT :
 501:Src/usbd_conf.c ****       usb_status = USBD_FAIL;
 502:Src/usbd_conf.c ****     break;
 503:Src/usbd_conf.c ****     default :
 504:Src/usbd_conf.c ****       usb_status = USBD_FAIL;
 505:Src/usbd_conf.c ****     break;
 506:Src/usbd_conf.c ****   }
 507:Src/usbd_conf.c ****   return usb_status;  
 508:Src/usbd_conf.c **** }
 876              		.loc 1 508 0
 877 0012 08BD     		pop	{r3, pc}
 878              	.LVL107:
 879              	.L84:
 492:Src/usbd_conf.c ****     break;
 880              		.loc 1 492 0
 881 0014 0020     		movs	r0, #0
ARM GAS  C:\Users\nhantt\AppData\Local\Temp\cceaKJNl.s 			page 25


 882              	.LVL108:
 883 0016 08BD     		pop	{r3, pc}
 884              	.LVL109:
 885              	.L85:
 498:Src/usbd_conf.c ****     break;
 886              		.loc 1 498 0
 887 0018 0120     		movs	r0, #1
 888              	.LVL110:
 499:Src/usbd_conf.c ****     case HAL_TIMEOUT :
 889              		.loc 1 499 0
 890 001a 08BD     		pop	{r3, pc}
 891              		.cfi_endproc
 892              	.LFE83:
 894              		.section	.text.USBD_LL_StallEP,"ax",%progbits
 895              		.align	1
 896              		.global	USBD_LL_StallEP
 897              		.syntax unified
 898              		.thumb
 899              		.thumb_func
 900              		.fpu softvfp
 902              	USBD_LL_StallEP:
 903              	.LFB84:
 509:Src/usbd_conf.c **** 
 510:Src/usbd_conf.c **** /**
 511:Src/usbd_conf.c ****   * @brief  Sets a Stall condition on an endpoint of the Low Level Driver.
 512:Src/usbd_conf.c ****   * @param  pdev: Device handle
 513:Src/usbd_conf.c ****   * @param  ep_addr: Endpoint number
 514:Src/usbd_conf.c ****   * @retval USBD status
 515:Src/usbd_conf.c ****   */
 516:Src/usbd_conf.c **** USBD_StatusTypeDef USBD_LL_StallEP(USBD_HandleTypeDef *pdev, uint8_t ep_addr)
 517:Src/usbd_conf.c **** {
 904              		.loc 1 517 0
 905              		.cfi_startproc
 906              		@ args = 0, pretend = 0, frame = 0
 907              		@ frame_needed = 0, uses_anonymous_args = 0
 908              	.LVL111:
 909 0000 08B5     		push	{r3, lr}
 910              	.LCFI22:
 911              		.cfi_def_cfa_offset 8
 912              		.cfi_offset 3, -8
 913              		.cfi_offset 14, -4
 914              	.LVL112:
 518:Src/usbd_conf.c ****   HAL_StatusTypeDef hal_status = HAL_OK;
 519:Src/usbd_conf.c ****   USBD_StatusTypeDef usb_status = USBD_OK;
 520:Src/usbd_conf.c ****   
 521:Src/usbd_conf.c ****   hal_status = HAL_PCD_EP_SetStall(pdev->pData, ep_addr);
 915              		.loc 1 521 0
 916 0002 D0F82002 		ldr	r0, [r0, #544]
 917              	.LVL113:
 918 0006 FFF7FEFF 		bl	HAL_PCD_EP_SetStall
 919              	.LVL114:
 522:Src/usbd_conf.c **** 
 523:Src/usbd_conf.c ****   switch (hal_status) {
 920              		.loc 1 523 0
 921 000a 18B1     		cbz	r0, .L91
 922 000c 0228     		cmp	r0, #2
 923 000e 03D0     		beq	.L92
ARM GAS  C:\Users\nhantt\AppData\Local\Temp\cceaKJNl.s 			page 26


 524:Src/usbd_conf.c ****     case HAL_OK :
 525:Src/usbd_conf.c ****       usb_status = USBD_OK;
 526:Src/usbd_conf.c ****     break;
 527:Src/usbd_conf.c ****     case HAL_ERROR :
 528:Src/usbd_conf.c ****       usb_status = USBD_FAIL;
 924              		.loc 1 528 0
 925 0010 0220     		movs	r0, #2
 926              	.LVL115:
 529:Src/usbd_conf.c ****     break;
 530:Src/usbd_conf.c ****     case HAL_BUSY :
 531:Src/usbd_conf.c ****       usb_status = USBD_BUSY;
 532:Src/usbd_conf.c ****     break;
 533:Src/usbd_conf.c ****     case HAL_TIMEOUT :
 534:Src/usbd_conf.c ****       usb_status = USBD_FAIL;
 535:Src/usbd_conf.c ****     break;
 536:Src/usbd_conf.c ****     default :
 537:Src/usbd_conf.c ****       usb_status = USBD_FAIL;
 538:Src/usbd_conf.c ****     break;
 539:Src/usbd_conf.c ****   }
 540:Src/usbd_conf.c ****   return usb_status;  
 541:Src/usbd_conf.c **** }
 927              		.loc 1 541 0
 928 0012 08BD     		pop	{r3, pc}
 929              	.LVL116:
 930              	.L91:
 525:Src/usbd_conf.c ****     break;
 931              		.loc 1 525 0
 932 0014 0020     		movs	r0, #0
 933              	.LVL117:
 934 0016 08BD     		pop	{r3, pc}
 935              	.LVL118:
 936              	.L92:
 531:Src/usbd_conf.c ****     break;
 937              		.loc 1 531 0
 938 0018 0120     		movs	r0, #1
 939              	.LVL119:
 532:Src/usbd_conf.c ****     case HAL_TIMEOUT :
 940              		.loc 1 532 0
 941 001a 08BD     		pop	{r3, pc}
 942              		.cfi_endproc
 943              	.LFE84:
 945              		.section	.text.USBD_LL_ClearStallEP,"ax",%progbits
 946              		.align	1
 947              		.global	USBD_LL_ClearStallEP
 948              		.syntax unified
 949              		.thumb
 950              		.thumb_func
 951              		.fpu softvfp
 953              	USBD_LL_ClearStallEP:
 954              	.LFB85:
 542:Src/usbd_conf.c **** 
 543:Src/usbd_conf.c **** /**
 544:Src/usbd_conf.c ****   * @brief  Clears a Stall condition on an endpoint of the Low Level Driver.
 545:Src/usbd_conf.c ****   * @param  pdev: Device handle
 546:Src/usbd_conf.c ****   * @param  ep_addr: Endpoint number
 547:Src/usbd_conf.c ****   * @retval USBD status
 548:Src/usbd_conf.c ****   */
ARM GAS  C:\Users\nhantt\AppData\Local\Temp\cceaKJNl.s 			page 27


 549:Src/usbd_conf.c **** USBD_StatusTypeDef USBD_LL_ClearStallEP(USBD_HandleTypeDef *pdev, uint8_t ep_addr)
 550:Src/usbd_conf.c **** {
 955              		.loc 1 550 0
 956              		.cfi_startproc
 957              		@ args = 0, pretend = 0, frame = 0
 958              		@ frame_needed = 0, uses_anonymous_args = 0
 959              	.LVL120:
 960 0000 08B5     		push	{r3, lr}
 961              	.LCFI23:
 962              		.cfi_def_cfa_offset 8
 963              		.cfi_offset 3, -8
 964              		.cfi_offset 14, -4
 965              	.LVL121:
 551:Src/usbd_conf.c ****   HAL_StatusTypeDef hal_status = HAL_OK;
 552:Src/usbd_conf.c ****   USBD_StatusTypeDef usb_status = USBD_OK;
 553:Src/usbd_conf.c ****   
 554:Src/usbd_conf.c ****   hal_status = HAL_PCD_EP_ClrStall(pdev->pData, ep_addr);  
 966              		.loc 1 554 0
 967 0002 D0F82002 		ldr	r0, [r0, #544]
 968              	.LVL122:
 969 0006 FFF7FEFF 		bl	HAL_PCD_EP_ClrStall
 970              	.LVL123:
 555:Src/usbd_conf.c ****      
 556:Src/usbd_conf.c ****   switch (hal_status) {
 971              		.loc 1 556 0
 972 000a 18B1     		cbz	r0, .L98
 973 000c 0228     		cmp	r0, #2
 974 000e 03D0     		beq	.L99
 557:Src/usbd_conf.c ****     case HAL_OK :
 558:Src/usbd_conf.c ****       usb_status = USBD_OK;
 559:Src/usbd_conf.c ****     break;
 560:Src/usbd_conf.c ****     case HAL_ERROR :
 561:Src/usbd_conf.c ****       usb_status = USBD_FAIL;
 975              		.loc 1 561 0
 976 0010 0220     		movs	r0, #2
 977              	.LVL124:
 562:Src/usbd_conf.c ****     break;
 563:Src/usbd_conf.c ****     case HAL_BUSY :
 564:Src/usbd_conf.c ****       usb_status = USBD_BUSY;
 565:Src/usbd_conf.c ****     break;
 566:Src/usbd_conf.c ****     case HAL_TIMEOUT :
 567:Src/usbd_conf.c ****       usb_status = USBD_FAIL;
 568:Src/usbd_conf.c ****     break;
 569:Src/usbd_conf.c ****     default :
 570:Src/usbd_conf.c ****       usb_status = USBD_FAIL;
 571:Src/usbd_conf.c ****     break;
 572:Src/usbd_conf.c ****   }
 573:Src/usbd_conf.c ****   return usb_status; 
 574:Src/usbd_conf.c **** }
 978              		.loc 1 574 0
 979 0012 08BD     		pop	{r3, pc}
 980              	.LVL125:
 981              	.L98:
 558:Src/usbd_conf.c ****     break;
 982              		.loc 1 558 0
 983 0014 0020     		movs	r0, #0
 984              	.LVL126:
ARM GAS  C:\Users\nhantt\AppData\Local\Temp\cceaKJNl.s 			page 28


 985 0016 08BD     		pop	{r3, pc}
 986              	.LVL127:
 987              	.L99:
 564:Src/usbd_conf.c ****     break;
 988              		.loc 1 564 0
 989 0018 0120     		movs	r0, #1
 990              	.LVL128:
 565:Src/usbd_conf.c ****     case HAL_TIMEOUT :
 991              		.loc 1 565 0
 992 001a 08BD     		pop	{r3, pc}
 993              		.cfi_endproc
 994              	.LFE85:
 996              		.section	.text.USBD_LL_IsStallEP,"ax",%progbits
 997              		.align	1
 998              		.global	USBD_LL_IsStallEP
 999              		.syntax unified
 1000              		.thumb
 1001              		.thumb_func
 1002              		.fpu softvfp
 1004              	USBD_LL_IsStallEP:
 1005              	.LFB86:
 575:Src/usbd_conf.c **** 
 576:Src/usbd_conf.c **** /**
 577:Src/usbd_conf.c ****   * @brief  Returns Stall condition.
 578:Src/usbd_conf.c ****   * @param  pdev: Device handle
 579:Src/usbd_conf.c ****   * @param  ep_addr: Endpoint number
 580:Src/usbd_conf.c ****   * @retval Stall (1: Yes, 0: No)
 581:Src/usbd_conf.c ****   */
 582:Src/usbd_conf.c **** uint8_t USBD_LL_IsStallEP(USBD_HandleTypeDef *pdev, uint8_t ep_addr)
 583:Src/usbd_conf.c **** {
 1006              		.loc 1 583 0
 1007              		.cfi_startproc
 1008              		@ args = 0, pretend = 0, frame = 0
 1009              		@ frame_needed = 0, uses_anonymous_args = 0
 1010              		@ link register save eliminated.
 1011              	.LVL129:
 584:Src/usbd_conf.c ****   PCD_HandleTypeDef *hpcd = (PCD_HandleTypeDef*) pdev->pData;
 1012              		.loc 1 584 0
 1013 0000 D0F82022 		ldr	r2, [r0, #544]
 1014              	.LVL130:
 585:Src/usbd_conf.c ****   
 586:Src/usbd_conf.c ****   if((ep_addr & 0x80) == 0x80)
 1015              		.loc 1 586 0
 1016 0004 11F0800F 		tst	r1, #128
 1017 0008 06D1     		bne	.L106
 587:Src/usbd_conf.c ****   {
 588:Src/usbd_conf.c ****     return hpcd->IN_ep[ep_addr & 0x7F].is_stall; 
 589:Src/usbd_conf.c ****   }
 590:Src/usbd_conf.c ****   else
 591:Src/usbd_conf.c ****   {
 592:Src/usbd_conf.c ****     return hpcd->OUT_ep[ep_addr & 0x7F].is_stall; 
 1018              		.loc 1 592 0
 1019 000a 01F07F01 		and	r1, r1, #127
 1020              	.LVL131:
 1021 000e 02EB4111 		add	r1, r2, r1, lsl #5
 1022 0012 91F82A02 		ldrb	r0, [r1, #554]	@ zero_extendqisi2
 1023              	.LVL132:
ARM GAS  C:\Users\nhantt\AppData\Local\Temp\cceaKJNl.s 			page 29


 593:Src/usbd_conf.c ****   }
 594:Src/usbd_conf.c **** }
 1024              		.loc 1 594 0
 1025 0016 7047     		bx	lr
 1026              	.LVL133:
 1027              	.L106:
 588:Src/usbd_conf.c ****   }
 1028              		.loc 1 588 0
 1029 0018 01F07F03 		and	r3, r1, #127
 1030 001c 02EB4311 		add	r1, r2, r3, lsl #5
 1031              	.LVL134:
 1032 0020 91F82A00 		ldrb	r0, [r1, #42]	@ zero_extendqisi2
 1033              	.LVL135:
 1034 0024 7047     		bx	lr
 1035              		.cfi_endproc
 1036              	.LFE86:
 1038              		.section	.text.USBD_LL_SetUSBAddress,"ax",%progbits
 1039              		.align	1
 1040              		.global	USBD_LL_SetUSBAddress
 1041              		.syntax unified
 1042              		.thumb
 1043              		.thumb_func
 1044              		.fpu softvfp
 1046              	USBD_LL_SetUSBAddress:
 1047              	.LFB87:
 595:Src/usbd_conf.c **** 
 596:Src/usbd_conf.c **** /**
 597:Src/usbd_conf.c ****   * @brief  Assigns a USB address to the device.
 598:Src/usbd_conf.c ****   * @param  pdev: Device handle
 599:Src/usbd_conf.c ****   * @param  dev_addr: Device address
 600:Src/usbd_conf.c ****   * @retval USBD status
 601:Src/usbd_conf.c ****   */
 602:Src/usbd_conf.c **** USBD_StatusTypeDef USBD_LL_SetUSBAddress(USBD_HandleTypeDef *pdev, uint8_t dev_addr)
 603:Src/usbd_conf.c **** {
 1048              		.loc 1 603 0
 1049              		.cfi_startproc
 1050              		@ args = 0, pretend = 0, frame = 0
 1051              		@ frame_needed = 0, uses_anonymous_args = 0
 1052              	.LVL136:
 1053 0000 08B5     		push	{r3, lr}
 1054              	.LCFI24:
 1055              		.cfi_def_cfa_offset 8
 1056              		.cfi_offset 3, -8
 1057              		.cfi_offset 14, -4
 1058              	.LVL137:
 604:Src/usbd_conf.c ****   HAL_StatusTypeDef hal_status = HAL_OK;
 605:Src/usbd_conf.c ****   USBD_StatusTypeDef usb_status = USBD_OK;
 606:Src/usbd_conf.c ****   
 607:Src/usbd_conf.c ****   hal_status = HAL_PCD_SetAddress(pdev->pData, dev_addr);
 1059              		.loc 1 607 0
 1060 0002 D0F82002 		ldr	r0, [r0, #544]
 1061              	.LVL138:
 1062 0006 FFF7FEFF 		bl	HAL_PCD_SetAddress
 1063              	.LVL139:
 608:Src/usbd_conf.c ****      
 609:Src/usbd_conf.c ****   switch (hal_status) {
 1064              		.loc 1 609 0
ARM GAS  C:\Users\nhantt\AppData\Local\Temp\cceaKJNl.s 			page 30


 1065 000a 18B1     		cbz	r0, .L109
 1066 000c 0228     		cmp	r0, #2
 1067 000e 03D0     		beq	.L110
 610:Src/usbd_conf.c ****     case HAL_OK :
 611:Src/usbd_conf.c ****       usb_status = USBD_OK;
 612:Src/usbd_conf.c ****     break;
 613:Src/usbd_conf.c ****     case HAL_ERROR :
 614:Src/usbd_conf.c ****       usb_status = USBD_FAIL;
 1068              		.loc 1 614 0
 1069 0010 0220     		movs	r0, #2
 1070              	.LVL140:
 615:Src/usbd_conf.c ****     break;
 616:Src/usbd_conf.c ****     case HAL_BUSY :
 617:Src/usbd_conf.c ****       usb_status = USBD_BUSY;
 618:Src/usbd_conf.c ****     break;
 619:Src/usbd_conf.c ****     case HAL_TIMEOUT :
 620:Src/usbd_conf.c ****       usb_status = USBD_FAIL;
 621:Src/usbd_conf.c ****     break;
 622:Src/usbd_conf.c ****     default :
 623:Src/usbd_conf.c ****       usb_status = USBD_FAIL;
 624:Src/usbd_conf.c ****     break;
 625:Src/usbd_conf.c ****   }
 626:Src/usbd_conf.c ****   return usb_status;  
 627:Src/usbd_conf.c **** }
 1071              		.loc 1 627 0
 1072 0012 08BD     		pop	{r3, pc}
 1073              	.LVL141:
 1074              	.L109:
 611:Src/usbd_conf.c ****     break;
 1075              		.loc 1 611 0
 1076 0014 0020     		movs	r0, #0
 1077              	.LVL142:
 1078 0016 08BD     		pop	{r3, pc}
 1079              	.LVL143:
 1080              	.L110:
 617:Src/usbd_conf.c ****     break;
 1081              		.loc 1 617 0
 1082 0018 0120     		movs	r0, #1
 1083              	.LVL144:
 618:Src/usbd_conf.c ****     case HAL_TIMEOUT :
 1084              		.loc 1 618 0
 1085 001a 08BD     		pop	{r3, pc}
 1086              		.cfi_endproc
 1087              	.LFE87:
 1089              		.section	.text.USBD_LL_Transmit,"ax",%progbits
 1090              		.align	1
 1091              		.global	USBD_LL_Transmit
 1092              		.syntax unified
 1093              		.thumb
 1094              		.thumb_func
 1095              		.fpu softvfp
 1097              	USBD_LL_Transmit:
 1098              	.LFB88:
 628:Src/usbd_conf.c **** 
 629:Src/usbd_conf.c **** /**
 630:Src/usbd_conf.c ****   * @brief  Transmits data over an endpoint.
 631:Src/usbd_conf.c ****   * @param  pdev: Device handle
ARM GAS  C:\Users\nhantt\AppData\Local\Temp\cceaKJNl.s 			page 31


 632:Src/usbd_conf.c ****   * @param  ep_addr: Endpoint number
 633:Src/usbd_conf.c ****   * @param  pbuf: Pointer to data to be sent
 634:Src/usbd_conf.c ****   * @param  size: Data size    
 635:Src/usbd_conf.c ****   * @retval USBD status
 636:Src/usbd_conf.c ****   */
 637:Src/usbd_conf.c **** USBD_StatusTypeDef USBD_LL_Transmit(USBD_HandleTypeDef *pdev, uint8_t ep_addr, uint8_t *pbuf, uint1
 638:Src/usbd_conf.c **** {
 1099              		.loc 1 638 0
 1100              		.cfi_startproc
 1101              		@ args = 0, pretend = 0, frame = 0
 1102              		@ frame_needed = 0, uses_anonymous_args = 0
 1103              	.LVL145:
 1104 0000 08B5     		push	{r3, lr}
 1105              	.LCFI25:
 1106              		.cfi_def_cfa_offset 8
 1107              		.cfi_offset 3, -8
 1108              		.cfi_offset 14, -4
 1109              	.LVL146:
 639:Src/usbd_conf.c ****   HAL_StatusTypeDef hal_status = HAL_OK;
 640:Src/usbd_conf.c ****   USBD_StatusTypeDef usb_status = USBD_OK;
 641:Src/usbd_conf.c **** 
 642:Src/usbd_conf.c ****   hal_status = HAL_PCD_EP_Transmit(pdev->pData, ep_addr, pbuf, size);
 1110              		.loc 1 642 0
 1111 0002 D0F82002 		ldr	r0, [r0, #544]
 1112              	.LVL147:
 1113 0006 FFF7FEFF 		bl	HAL_PCD_EP_Transmit
 1114              	.LVL148:
 643:Src/usbd_conf.c ****      
 644:Src/usbd_conf.c ****   switch (hal_status) {
 1115              		.loc 1 644 0
 1116 000a 18B1     		cbz	r0, .L116
 1117 000c 0228     		cmp	r0, #2
 1118 000e 03D0     		beq	.L117
 645:Src/usbd_conf.c ****     case HAL_OK :
 646:Src/usbd_conf.c ****       usb_status = USBD_OK;
 647:Src/usbd_conf.c ****     break;
 648:Src/usbd_conf.c ****     case HAL_ERROR :
 649:Src/usbd_conf.c ****       usb_status = USBD_FAIL;
 1119              		.loc 1 649 0
 1120 0010 0220     		movs	r0, #2
 1121              	.LVL149:
 650:Src/usbd_conf.c ****     break;
 651:Src/usbd_conf.c ****     case HAL_BUSY :
 652:Src/usbd_conf.c ****       usb_status = USBD_BUSY;
 653:Src/usbd_conf.c ****     break;
 654:Src/usbd_conf.c ****     case HAL_TIMEOUT :
 655:Src/usbd_conf.c ****       usb_status = USBD_FAIL;
 656:Src/usbd_conf.c ****     break;
 657:Src/usbd_conf.c ****     default :
 658:Src/usbd_conf.c ****       usb_status = USBD_FAIL;
 659:Src/usbd_conf.c ****     break;
 660:Src/usbd_conf.c ****   }
 661:Src/usbd_conf.c ****   return usb_status;    
 662:Src/usbd_conf.c **** }
 1122              		.loc 1 662 0
 1123 0012 08BD     		pop	{r3, pc}
 1124              	.LVL150:
ARM GAS  C:\Users\nhantt\AppData\Local\Temp\cceaKJNl.s 			page 32


 1125              	.L116:
 646:Src/usbd_conf.c ****     break;
 1126              		.loc 1 646 0
 1127 0014 0020     		movs	r0, #0
 1128              	.LVL151:
 1129 0016 08BD     		pop	{r3, pc}
 1130              	.LVL152:
 1131              	.L117:
 652:Src/usbd_conf.c ****     break;
 1132              		.loc 1 652 0
 1133 0018 0120     		movs	r0, #1
 1134              	.LVL153:
 653:Src/usbd_conf.c ****     case HAL_TIMEOUT :
 1135              		.loc 1 653 0
 1136 001a 08BD     		pop	{r3, pc}
 1137              		.cfi_endproc
 1138              	.LFE88:
 1140              		.section	.text.USBD_LL_PrepareReceive,"ax",%progbits
 1141              		.align	1
 1142              		.global	USBD_LL_PrepareReceive
 1143              		.syntax unified
 1144              		.thumb
 1145              		.thumb_func
 1146              		.fpu softvfp
 1148              	USBD_LL_PrepareReceive:
 1149              	.LFB89:
 663:Src/usbd_conf.c **** 
 664:Src/usbd_conf.c **** /**
 665:Src/usbd_conf.c ****   * @brief  Prepares an endpoint for reception.
 666:Src/usbd_conf.c ****   * @param  pdev: Device handle
 667:Src/usbd_conf.c ****   * @param  ep_addr: Endpoint number
 668:Src/usbd_conf.c ****   * @param  pbuf: Pointer to data to be received
 669:Src/usbd_conf.c ****   * @param  size: Data size
 670:Src/usbd_conf.c ****   * @retval USBD status
 671:Src/usbd_conf.c ****   */
 672:Src/usbd_conf.c **** USBD_StatusTypeDef USBD_LL_PrepareReceive(USBD_HandleTypeDef *pdev, uint8_t ep_addr, uint8_t *pbuf,
 673:Src/usbd_conf.c **** {
 1150              		.loc 1 673 0
 1151              		.cfi_startproc
 1152              		@ args = 0, pretend = 0, frame = 0
 1153              		@ frame_needed = 0, uses_anonymous_args = 0
 1154              	.LVL154:
 1155 0000 08B5     		push	{r3, lr}
 1156              	.LCFI26:
 1157              		.cfi_def_cfa_offset 8
 1158              		.cfi_offset 3, -8
 1159              		.cfi_offset 14, -4
 1160              	.LVL155:
 674:Src/usbd_conf.c ****   HAL_StatusTypeDef hal_status = HAL_OK;
 675:Src/usbd_conf.c ****   USBD_StatusTypeDef usb_status = USBD_OK;
 676:Src/usbd_conf.c **** 
 677:Src/usbd_conf.c ****   hal_status = HAL_PCD_EP_Receive(pdev->pData, ep_addr, pbuf, size);
 1161              		.loc 1 677 0
 1162 0002 D0F82002 		ldr	r0, [r0, #544]
 1163              	.LVL156:
 1164 0006 FFF7FEFF 		bl	HAL_PCD_EP_Receive
 1165              	.LVL157:
ARM GAS  C:\Users\nhantt\AppData\Local\Temp\cceaKJNl.s 			page 33


 678:Src/usbd_conf.c ****      
 679:Src/usbd_conf.c ****   switch (hal_status) {
 1166              		.loc 1 679 0
 1167 000a 18B1     		cbz	r0, .L123
 1168 000c 0228     		cmp	r0, #2
 1169 000e 03D0     		beq	.L124
 680:Src/usbd_conf.c ****     case HAL_OK :
 681:Src/usbd_conf.c ****       usb_status = USBD_OK;
 682:Src/usbd_conf.c ****     break;
 683:Src/usbd_conf.c ****     case HAL_ERROR :
 684:Src/usbd_conf.c ****       usb_status = USBD_FAIL;
 1170              		.loc 1 684 0
 1171 0010 0220     		movs	r0, #2
 1172              	.LVL158:
 685:Src/usbd_conf.c ****     break;
 686:Src/usbd_conf.c ****     case HAL_BUSY :
 687:Src/usbd_conf.c ****       usb_status = USBD_BUSY;
 688:Src/usbd_conf.c ****     break;
 689:Src/usbd_conf.c ****     case HAL_TIMEOUT :
 690:Src/usbd_conf.c ****       usb_status = USBD_FAIL;
 691:Src/usbd_conf.c ****     break;
 692:Src/usbd_conf.c ****     default :
 693:Src/usbd_conf.c ****       usb_status = USBD_FAIL;
 694:Src/usbd_conf.c ****     break;
 695:Src/usbd_conf.c ****   }
 696:Src/usbd_conf.c ****   return usb_status; 
 697:Src/usbd_conf.c **** }
 1173              		.loc 1 697 0
 1174 0012 08BD     		pop	{r3, pc}
 1175              	.LVL159:
 1176              	.L123:
 681:Src/usbd_conf.c ****     break;
 1177              		.loc 1 681 0
 1178 0014 0020     		movs	r0, #0
 1179              	.LVL160:
 1180 0016 08BD     		pop	{r3, pc}
 1181              	.LVL161:
 1182              	.L124:
 687:Src/usbd_conf.c ****     break;
 1183              		.loc 1 687 0
 1184 0018 0120     		movs	r0, #1
 1185              	.LVL162:
 688:Src/usbd_conf.c ****     case HAL_TIMEOUT :
 1186              		.loc 1 688 0
 1187 001a 08BD     		pop	{r3, pc}
 1188              		.cfi_endproc
 1189              	.LFE89:
 1191              		.section	.text.USBD_LL_GetRxDataSize,"ax",%progbits
 1192              		.align	1
 1193              		.global	USBD_LL_GetRxDataSize
 1194              		.syntax unified
 1195              		.thumb
 1196              		.thumb_func
 1197              		.fpu softvfp
 1199              	USBD_LL_GetRxDataSize:
 1200              	.LFB90:
 698:Src/usbd_conf.c **** 
ARM GAS  C:\Users\nhantt\AppData\Local\Temp\cceaKJNl.s 			page 34


 699:Src/usbd_conf.c **** /**
 700:Src/usbd_conf.c ****   * @brief  Returns the last transfered packet size.
 701:Src/usbd_conf.c ****   * @param  pdev: Device handle
 702:Src/usbd_conf.c ****   * @param  ep_addr: Endpoint number
 703:Src/usbd_conf.c ****   * @retval Recived Data Size
 704:Src/usbd_conf.c ****   */
 705:Src/usbd_conf.c **** uint32_t USBD_LL_GetRxDataSize(USBD_HandleTypeDef *pdev, uint8_t ep_addr)
 706:Src/usbd_conf.c **** {
 1201              		.loc 1 706 0
 1202              		.cfi_startproc
 1203              		@ args = 0, pretend = 0, frame = 0
 1204              		@ frame_needed = 0, uses_anonymous_args = 0
 1205              	.LVL163:
 1206 0000 08B5     		push	{r3, lr}
 1207              	.LCFI27:
 1208              		.cfi_def_cfa_offset 8
 1209              		.cfi_offset 3, -8
 1210              		.cfi_offset 14, -4
 707:Src/usbd_conf.c ****   return HAL_PCD_EP_GetRxCount((PCD_HandleTypeDef*) pdev->pData, ep_addr);
 1211              		.loc 1 707 0
 1212 0002 D0F82002 		ldr	r0, [r0, #544]
 1213              	.LVL164:
 1214 0006 FFF7FEFF 		bl	HAL_PCD_EP_GetRxCount
 1215              	.LVL165:
 708:Src/usbd_conf.c **** }
 1216              		.loc 1 708 0
 1217 000a 08BD     		pop	{r3, pc}
 1218              		.cfi_endproc
 1219              	.LFE90:
 1221              		.section	.text.USBD_LL_Delay,"ax",%progbits
 1222              		.align	1
 1223              		.global	USBD_LL_Delay
 1224              		.syntax unified
 1225              		.thumb
 1226              		.thumb_func
 1227              		.fpu softvfp
 1229              	USBD_LL_Delay:
 1230              	.LFB91:
 709:Src/usbd_conf.c **** 
 710:Src/usbd_conf.c **** /**
 711:Src/usbd_conf.c ****   * @brief  Delays routine for the USB device library.
 712:Src/usbd_conf.c ****   * @param  Delay: Delay in ms
 713:Src/usbd_conf.c ****   * @retval None
 714:Src/usbd_conf.c ****   */
 715:Src/usbd_conf.c **** void USBD_LL_Delay(uint32_t Delay)
 716:Src/usbd_conf.c **** {
 1231              		.loc 1 716 0
 1232              		.cfi_startproc
 1233              		@ args = 0, pretend = 0, frame = 0
 1234              		@ frame_needed = 0, uses_anonymous_args = 0
 1235              	.LVL166:
 1236 0000 08B5     		push	{r3, lr}
 1237              	.LCFI28:
 1238              		.cfi_def_cfa_offset 8
 1239              		.cfi_offset 3, -8
 1240              		.cfi_offset 14, -4
 717:Src/usbd_conf.c ****   HAL_Delay(Delay);
ARM GAS  C:\Users\nhantt\AppData\Local\Temp\cceaKJNl.s 			page 35


 1241              		.loc 1 717 0
 1242 0002 FFF7FEFF 		bl	HAL_Delay
 1243              	.LVL167:
 1244 0006 08BD     		pop	{r3, pc}
 1245              		.cfi_endproc
 1246              	.LFE91:
 1248              		.section	.text.USBD_static_malloc,"ax",%progbits
 1249              		.align	1
 1250              		.global	USBD_static_malloc
 1251              		.syntax unified
 1252              		.thumb
 1253              		.thumb_func
 1254              		.fpu softvfp
 1256              	USBD_static_malloc:
 1257              	.LFB92:
 718:Src/usbd_conf.c **** }
 719:Src/usbd_conf.c **** 
 720:Src/usbd_conf.c **** /**
 721:Src/usbd_conf.c ****   * @brief  Static single allocation.
 722:Src/usbd_conf.c ****   * @param  size: Size of allocated memory
 723:Src/usbd_conf.c ****   * @retval None
 724:Src/usbd_conf.c ****   */
 725:Src/usbd_conf.c **** void *USBD_static_malloc(uint32_t size)
 726:Src/usbd_conf.c **** {
 1258              		.loc 1 726 0
 1259              		.cfi_startproc
 1260              		@ args = 0, pretend = 0, frame = 0
 1261              		@ frame_needed = 0, uses_anonymous_args = 0
 1262              		@ link register save eliminated.
 1263              	.LVL168:
 727:Src/usbd_conf.c ****   static uint32_t mem[(sizeof(USBD_CDC_HandleTypeDef)/4)+1];/* On 32-bit boundary */
 728:Src/usbd_conf.c ****   return mem;
 729:Src/usbd_conf.c **** }
 1264              		.loc 1 729 0
 1265 0000 0048     		ldr	r0, .L133
 1266              	.LVL169:
 1267 0002 7047     		bx	lr
 1268              	.L134:
 1269              		.align	2
 1270              	.L133:
 1271 0004 00000000 		.word	.LANCHOR0
 1272              		.cfi_endproc
 1273              	.LFE92:
 1275              		.section	.text.USBD_static_free,"ax",%progbits
 1276              		.align	1
 1277              		.global	USBD_static_free
 1278              		.syntax unified
 1279              		.thumb
 1280              		.thumb_func
 1281              		.fpu softvfp
 1283              	USBD_static_free:
 1284              	.LFB93:
 730:Src/usbd_conf.c **** 
 731:Src/usbd_conf.c **** /**
 732:Src/usbd_conf.c ****   * @brief  Dummy memory free
 733:Src/usbd_conf.c ****   * @param  p: Pointer to allocated  memory address
 734:Src/usbd_conf.c ****   * @retval None
ARM GAS  C:\Users\nhantt\AppData\Local\Temp\cceaKJNl.s 			page 36


 735:Src/usbd_conf.c ****   */
 736:Src/usbd_conf.c **** void USBD_static_free(void *p)
 737:Src/usbd_conf.c **** {
 1285              		.loc 1 737 0
 1286              		.cfi_startproc
 1287              		@ args = 0, pretend = 0, frame = 0
 1288              		@ frame_needed = 0, uses_anonymous_args = 0
 1289              		@ link register save eliminated.
 1290              	.LVL170:
 1291 0000 7047     		bx	lr
 1292              		.cfi_endproc
 1293              	.LFE93:
 1295              		.section	.text.HAL_PCDEx_SetConnectionState,"ax",%progbits
 1296              		.align	1
 1297              		.global	HAL_PCDEx_SetConnectionState
 1298              		.syntax unified
 1299              		.thumb
 1300              		.thumb_func
 1301              		.fpu softvfp
 1303              	HAL_PCDEx_SetConnectionState:
 1304              	.LFB94:
 738:Src/usbd_conf.c **** 
 739:Src/usbd_conf.c **** }
 740:Src/usbd_conf.c **** 
 741:Src/usbd_conf.c **** /**
 742:Src/usbd_conf.c ****   * @brief Software Device Connection
 743:Src/usbd_conf.c ****   * @param hpcd: PCD handle
 744:Src/usbd_conf.c ****   * @param state: Connection state (0: disconnected / 1: connected)
 745:Src/usbd_conf.c ****   * @retval None
 746:Src/usbd_conf.c ****   */
 747:Src/usbd_conf.c **** void HAL_PCDEx_SetConnectionState(PCD_HandleTypeDef *hpcd, uint8_t state)
 748:Src/usbd_conf.c **** {
 1305              		.loc 1 748 0
 1306              		.cfi_startproc
 1307              		@ args = 0, pretend = 0, frame = 0
 1308              		@ frame_needed = 0, uses_anonymous_args = 0
 1309              		@ link register save eliminated.
 1310              	.LVL171:
 1311 0000 7047     		bx	lr
 1312              		.cfi_endproc
 1313              	.LFE94:
 1315              		.comm	hpcd_USB_FS,1120,4
 1316              		.section	.bss.mem.7740,"aw",%nobits
 1317              		.align	2
 1318              		.set	.LANCHOR0,. + 0
 1321              	mem.7740:
 1322 0000 00000000 		.space	544
 1322      00000000 
 1322      00000000 
 1322      00000000 
 1322      00000000 
 1323              		.section	.rodata.USBD_LL_Init.str1.4,"aMS",%progbits,1
 1324              		.align	2
 1325              	.LC0:
 1326 0000 5372632F 		.ascii	"Src/usbd_conf.c\000"
 1326      75736264 
 1326      5F636F6E 
ARM GAS  C:\Users\nhantt\AppData\Local\Temp\cceaKJNl.s 			page 37


 1326      662E6300 
 1327              		.text
 1328              	.Letext0:
 1329              		.file 2 "c:\\program files (x86)\\gnu tools arm embedded\\6.2 2016q4\\arm-none-eabi\\include\\mach
 1330              		.file 3 "c:\\program files (x86)\\gnu tools arm embedded\\6.2 2016q4\\arm-none-eabi\\include\\sys\
 1331              		.file 4 "Drivers/CMSIS/Include/core_cm3.h"
 1332              		.file 5 "Drivers/CMSIS/Device/ST/STM32F1xx/Include/system_stm32f1xx.h"
 1333              		.file 6 "Drivers/CMSIS/Device/ST/STM32F1xx/Include/stm32f103xe.h"
 1334              		.file 7 "Drivers/CMSIS/Device/ST/STM32F1xx/Include/stm32f1xx.h"
 1335              		.file 8 "c:\\program files (x86)\\gnu tools arm embedded\\6.2 2016q4\\arm-none-eabi\\include\\sys\
 1336              		.file 9 "c:\\program files (x86)\\gnu tools arm embedded\\6.2 2016q4\\arm-none-eabi\\include\\sys\
 1337              		.file 10 "c:\\program files (x86)\\gnu tools arm embedded\\6.2 2016q4\\lib\\gcc\\arm-none-eabi\\6.
 1338              		.file 11 "c:\\program files (x86)\\gnu tools arm embedded\\6.2 2016q4\\arm-none-eabi\\include\\sys
 1339              		.file 12 "Drivers/STM32F1xx_HAL_Driver/Inc/stm32f1xx_hal_def.h"
 1340              		.file 13 "Drivers/STM32F1xx_HAL_Driver/Inc/stm32f1xx_ll_usb.h"
 1341              		.file 14 "Drivers/STM32F1xx_HAL_Driver/Inc/stm32f1xx_hal_pcd.h"
 1342              		.file 15 "c:\\program files (x86)\\gnu tools arm embedded\\6.2 2016q4\\arm-none-eabi\\include\\std
 1343              		.file 16 "Middlewares/ST/STM32_USB_Device_Library/Core/Inc/usbd_def.h"
 1344              		.file 17 "Middlewares/ST/STM32_USB_Device_Library/Class/CDC/Inc/usbd_cdc.h"
 1345              		.file 18 "Drivers/STM32F1xx_HAL_Driver/Inc/stm32f1xx_hal.h"
 1346              		.file 19 "Drivers/STM32F1xx_HAL_Driver/Inc/stm32f1xx_hal_pcd_ex.h"
 1347              		.file 20 "Middlewares/ST/STM32_USB_Device_Library/Core/Inc/usbd_core.h"
 1348              		.file 21 "Drivers/STM32F1xx_HAL_Driver/Inc/stm32f1xx_hal_cortex.h"
ARM GAS  C:\Users\nhantt\AppData\Local\Temp\cceaKJNl.s 			page 38

