ARM GAS  C:\Users\behun\AppData\Local\Temp\ccqf1pAO.s 			page 1


   1              		.cpu cortex-m3
   2              		.eabi_attribute 20, 1
   3              		.eabi_attribute 21, 1
   4              		.eabi_attribute 23, 3
   5              		.eabi_attribute 24, 1
   6              		.eabi_attribute 25, 1
   7              		.eabi_attribute 26, 1
   8              		.eabi_attribute 30, 1
   9              		.eabi_attribute 34, 1
  10              		.eabi_attribute 18, 4
  11              		.file	"main.c"
  12              		.text
  13              	.Ltext0:
  14              		.cfi_sections	.debug_frame
  15              		.section	.text.MX_GPIO_Init,"ax",%progbits
  16              		.align	1
  17              		.arch armv7-m
  18              		.syntax unified
  19              		.thumb
  20              		.thumb_func
  21              		.fpu softvfp
  23              	MX_GPIO_Init:
  24              	.LFB68:
  25              		.file 1 "Src/main.c"
   1:Src/main.c    **** #include "main.h"
   2:Src/main.c    **** #include "led.h"
   3:Src/main.c    **** 
   4:Src/main.c    **** void SystemClock_Config(void);
   5:Src/main.c    **** static void MX_GPIO_Init(void);
   6:Src/main.c    **** int main(void)
   7:Src/main.c    **** {
   8:Src/main.c    ****   HAL_Init();
   9:Src/main.c    ****   SystemClock_Config();
  10:Src/main.c    ****   MX_GPIO_Init();
  11:Src/main.c    ****   uint32_t timeLed1 = HAL_GetTick();
  12:Src/main.c    ****   uint32_t timeLed2 = HAL_GetTick();
  13:Src/main.c    ****   while (1)
  14:Src/main.c    ****   {
  15:Src/main.c    ****     if(HAL_GetTick() - timeLed1 > 500)
  16:Src/main.c    ****     {
  17:Src/main.c    ****       HAL_GPIO_TogglePin(GPIOC, GPIO_PIN_6);
  18:Src/main.c    ****       timeLed1 = HAL_GetTick();
  19:Src/main.c    ****     }
  20:Src/main.c    ****     if(HAL_GetTick() - timeLed2 > 1000)
  21:Src/main.c    ****     {
  22:Src/main.c    ****       HAL_GPIO_TogglePin(GPIOC, GPIO_PIN_7);
  23:Src/main.c    ****       timeLed2 = HAL_GetTick();
  24:Src/main.c    ****     }
  25:Src/main.c    ****   }
  26:Src/main.c    ****   /* USER CODE END 3 */
  27:Src/main.c    **** }
  28:Src/main.c    **** 
  29:Src/main.c    **** /**
  30:Src/main.c    ****   * @brief System Clock Configuration
  31:Src/main.c    ****   * @retval None
  32:Src/main.c    ****   */
  33:Src/main.c    **** void SystemClock_Config(void)
ARM GAS  C:\Users\behun\AppData\Local\Temp\ccqf1pAO.s 			page 2


  34:Src/main.c    **** {
  35:Src/main.c    ****   RCC_OscInitTypeDef RCC_OscInitStruct = {0};
  36:Src/main.c    ****   RCC_ClkInitTypeDef RCC_ClkInitStruct = {0};
  37:Src/main.c    **** 
  38:Src/main.c    ****   /** Initializes the CPU, AHB and APB busses clocks 
  39:Src/main.c    ****   */
  40:Src/main.c    ****   RCC_OscInitStruct.OscillatorType = RCC_OSCILLATORTYPE_HSI;
  41:Src/main.c    ****   RCC_OscInitStruct.HSIState = RCC_HSI_ON;
  42:Src/main.c    ****   RCC_OscInitStruct.HSICalibrationValue = RCC_HSICALIBRATION_DEFAULT;
  43:Src/main.c    ****   RCC_OscInitStruct.PLL.PLLState = RCC_PLL_NONE;
  44:Src/main.c    ****   if (HAL_RCC_OscConfig(&RCC_OscInitStruct) != HAL_OK)
  45:Src/main.c    ****   {
  46:Src/main.c    ****     Error_Handler();
  47:Src/main.c    ****   }
  48:Src/main.c    ****   /** Initializes the CPU, AHB and APB busses clocks 
  49:Src/main.c    ****   */
  50:Src/main.c    ****   RCC_ClkInitStruct.ClockType = RCC_CLOCKTYPE_HCLK|RCC_CLOCKTYPE_SYSCLK
  51:Src/main.c    ****                               |RCC_CLOCKTYPE_PCLK1|RCC_CLOCKTYPE_PCLK2;
  52:Src/main.c    ****   RCC_ClkInitStruct.SYSCLKSource = RCC_SYSCLKSOURCE_HSI;
  53:Src/main.c    ****   RCC_ClkInitStruct.AHBCLKDivider = RCC_SYSCLK_DIV1;
  54:Src/main.c    ****   RCC_ClkInitStruct.APB1CLKDivider = RCC_HCLK_DIV1;
  55:Src/main.c    ****   RCC_ClkInitStruct.APB2CLKDivider = RCC_HCLK_DIV1;
  56:Src/main.c    **** 
  57:Src/main.c    ****   if (HAL_RCC_ClockConfig(&RCC_ClkInitStruct, FLASH_LATENCY_0) != HAL_OK)
  58:Src/main.c    ****   {
  59:Src/main.c    ****     Error_Handler();
  60:Src/main.c    ****   }
  61:Src/main.c    **** }
  62:Src/main.c    **** 
  63:Src/main.c    **** /**
  64:Src/main.c    ****   * @brief GPIO Initialization Function
  65:Src/main.c    ****   * @param None
  66:Src/main.c    ****   * @retval None
  67:Src/main.c    ****   */
  68:Src/main.c    **** static void MX_GPIO_Init(void)
  69:Src/main.c    **** {
  26              		.loc 1 69 1 view -0
  27              		.cfi_startproc
  28              		@ args = 0, pretend = 0, frame = 24
  29              		@ frame_needed = 0, uses_anonymous_args = 0
  30 0000 00B5     		push	{lr}
  31              	.LCFI0:
  32              		.cfi_def_cfa_offset 4
  33              		.cfi_offset 14, -4
  34 0002 87B0     		sub	sp, sp, #28
  35              	.LCFI1:
  36              		.cfi_def_cfa_offset 32
  70:Src/main.c    **** 
  71:Src/main.c    ****   /* GPIO Ports Clock Enable */
  72:Src/main.c    ****   __HAL_RCC_GPIOC_CLK_ENABLE();
  37              		.loc 1 72 3 view .LVU1
  38              	.LBB2:
  39              		.loc 1 72 3 view .LVU2
  40              		.loc 1 72 3 view .LVU3
  41 0004 0C4B     		ldr	r3, .L3
  42 0006 9A69     		ldr	r2, [r3, #24]
  43 0008 42F01002 		orr	r2, r2, #16
ARM GAS  C:\Users\behun\AppData\Local\Temp\ccqf1pAO.s 			page 3


  44 000c 9A61     		str	r2, [r3, #24]
  45              		.loc 1 72 3 view .LVU4
  46 000e 9B69     		ldr	r3, [r3, #24]
  47 0010 03F01003 		and	r3, r3, #16
  48 0014 0193     		str	r3, [sp, #4]
  49              		.loc 1 72 3 view .LVU5
  50 0016 019B     		ldr	r3, [sp, #4]
  51              	.LBE2:
  73:Src/main.c    ****     GPIO_InitTypeDef GPIO_InitStruct = {0};
  52              		.loc 1 73 5 view .LVU6
  53              		.loc 1 73 22 is_stmt 0 view .LVU7
  54 0018 0023     		movs	r3, #0
  55 001a 0493     		str	r3, [sp, #16]
  74:Src/main.c    ****   GPIO_InitStruct.Pin = GPIO_PIN_6|GPIO_PIN_7;
  56              		.loc 1 74 3 is_stmt 1 view .LVU8
  57              		.loc 1 74 23 is_stmt 0 view .LVU9
  58 001c C023     		movs	r3, #192
  59 001e 0293     		str	r3, [sp, #8]
  75:Src/main.c    ****   GPIO_InitStruct.Mode = GPIO_MODE_OUTPUT_PP;
  60              		.loc 1 75 3 is_stmt 1 view .LVU10
  61              		.loc 1 75 24 is_stmt 0 view .LVU11
  62 0020 0123     		movs	r3, #1
  63 0022 0393     		str	r3, [sp, #12]
  76:Src/main.c    ****   GPIO_InitStruct.Pull = GPIO_NOPULL;
  64              		.loc 1 76 3 is_stmt 1 view .LVU12
  77:Src/main.c    ****   GPIO_InitStruct.Speed = GPIO_SPEED_FREQ_HIGH;
  65              		.loc 1 77 3 view .LVU13
  66              		.loc 1 77 25 is_stmt 0 view .LVU14
  67 0024 0323     		movs	r3, #3
  68 0026 0593     		str	r3, [sp, #20]
  78:Src/main.c    ****   HAL_GPIO_Init(GPIOC, &GPIO_InitStruct);
  69              		.loc 1 78 3 is_stmt 1 view .LVU15
  70 0028 02A9     		add	r1, sp, #8
  71 002a 0448     		ldr	r0, .L3+4
  72 002c FFF7FEFF 		bl	HAL_GPIO_Init
  73              	.LVL0:
  79:Src/main.c    **** 
  80:Src/main.c    **** }
  74              		.loc 1 80 1 is_stmt 0 view .LVU16
  75 0030 07B0     		add	sp, sp, #28
  76              	.LCFI2:
  77              		.cfi_def_cfa_offset 4
  78              		@ sp needed
  79 0032 5DF804FB 		ldr	pc, [sp], #4
  80              	.L4:
  81 0036 00BF     		.align	2
  82              	.L3:
  83 0038 00100240 		.word	1073876992
  84 003c 00100140 		.word	1073811456
  85              		.cfi_endproc
  86              	.LFE68:
  88              		.section	.text.SystemClock_Config,"ax",%progbits
  89              		.align	1
  90              		.global	SystemClock_Config
  91              		.syntax unified
  92              		.thumb
  93              		.thumb_func
ARM GAS  C:\Users\behun\AppData\Local\Temp\ccqf1pAO.s 			page 4


  94              		.fpu softvfp
  96              	SystemClock_Config:
  97              	.LFB67:
  34:Src/main.c    ****   RCC_OscInitTypeDef RCC_OscInitStruct = {0};
  98              		.loc 1 34 1 is_stmt 1 view -0
  99              		.cfi_startproc
 100              		@ args = 0, pretend = 0, frame = 64
 101              		@ frame_needed = 0, uses_anonymous_args = 0
 102 0000 10B5     		push	{r4, lr}
 103              	.LCFI3:
 104              		.cfi_def_cfa_offset 8
 105              		.cfi_offset 4, -8
 106              		.cfi_offset 14, -4
 107 0002 90B0     		sub	sp, sp, #64
 108              	.LCFI4:
 109              		.cfi_def_cfa_offset 72
  35:Src/main.c    ****   RCC_ClkInitTypeDef RCC_ClkInitStruct = {0};
 110              		.loc 1 35 3 view .LVU18
  35:Src/main.c    ****   RCC_ClkInitTypeDef RCC_ClkInitStruct = {0};
 111              		.loc 1 35 22 is_stmt 0 view .LVU19
 112 0004 2422     		movs	r2, #36
 113 0006 0021     		movs	r1, #0
 114 0008 07A8     		add	r0, sp, #28
 115 000a FFF7FEFF 		bl	memset
 116              	.LVL1:
  36:Src/main.c    **** 
 117              		.loc 1 36 3 is_stmt 1 view .LVU20
  36:Src/main.c    **** 
 118              		.loc 1 36 22 is_stmt 0 view .LVU21
 119 000e 0024     		movs	r4, #0
 120 0010 0194     		str	r4, [sp, #4]
 121 0012 0294     		str	r4, [sp, #8]
 122 0014 0394     		str	r4, [sp, #12]
 123 0016 0494     		str	r4, [sp, #16]
 124 0018 0594     		str	r4, [sp, #20]
  40:Src/main.c    ****   RCC_OscInitStruct.HSIState = RCC_HSI_ON;
 125              		.loc 1 40 3 is_stmt 1 view .LVU22
  40:Src/main.c    ****   RCC_OscInitStruct.HSIState = RCC_HSI_ON;
 126              		.loc 1 40 36 is_stmt 0 view .LVU23
 127 001a 0223     		movs	r3, #2
 128 001c 0693     		str	r3, [sp, #24]
  41:Src/main.c    ****   RCC_OscInitStruct.HSICalibrationValue = RCC_HSICALIBRATION_DEFAULT;
 129              		.loc 1 41 3 is_stmt 1 view .LVU24
  41:Src/main.c    ****   RCC_OscInitStruct.HSICalibrationValue = RCC_HSICALIBRATION_DEFAULT;
 130              		.loc 1 41 30 is_stmt 0 view .LVU25
 131 001e 0123     		movs	r3, #1
 132 0020 0A93     		str	r3, [sp, #40]
  42:Src/main.c    ****   RCC_OscInitStruct.PLL.PLLState = RCC_PLL_NONE;
 133              		.loc 1 42 3 is_stmt 1 view .LVU26
  42:Src/main.c    ****   RCC_OscInitStruct.PLL.PLLState = RCC_PLL_NONE;
 134              		.loc 1 42 41 is_stmt 0 view .LVU27
 135 0022 1023     		movs	r3, #16
 136 0024 0B93     		str	r3, [sp, #44]
  43:Src/main.c    ****   if (HAL_RCC_OscConfig(&RCC_OscInitStruct) != HAL_OK)
 137              		.loc 1 43 3 is_stmt 1 view .LVU28
  44:Src/main.c    ****   {
 138              		.loc 1 44 3 view .LVU29
ARM GAS  C:\Users\behun\AppData\Local\Temp\ccqf1pAO.s 			page 5


  44:Src/main.c    ****   {
 139              		.loc 1 44 7 is_stmt 0 view .LVU30
 140 0026 06A8     		add	r0, sp, #24
 141 0028 FFF7FEFF 		bl	HAL_RCC_OscConfig
 142              	.LVL2:
  50:Src/main.c    ****                               |RCC_CLOCKTYPE_PCLK1|RCC_CLOCKTYPE_PCLK2;
 143              		.loc 1 50 3 is_stmt 1 view .LVU31
  50:Src/main.c    ****                               |RCC_CLOCKTYPE_PCLK1|RCC_CLOCKTYPE_PCLK2;
 144              		.loc 1 50 31 is_stmt 0 view .LVU32
 145 002c 0F23     		movs	r3, #15
 146 002e 0193     		str	r3, [sp, #4]
  52:Src/main.c    ****   RCC_ClkInitStruct.AHBCLKDivider = RCC_SYSCLK_DIV1;
 147              		.loc 1 52 3 is_stmt 1 view .LVU33
  52:Src/main.c    ****   RCC_ClkInitStruct.AHBCLKDivider = RCC_SYSCLK_DIV1;
 148              		.loc 1 52 34 is_stmt 0 view .LVU34
 149 0030 0294     		str	r4, [sp, #8]
  53:Src/main.c    ****   RCC_ClkInitStruct.APB1CLKDivider = RCC_HCLK_DIV1;
 150              		.loc 1 53 3 is_stmt 1 view .LVU35
  53:Src/main.c    ****   RCC_ClkInitStruct.APB1CLKDivider = RCC_HCLK_DIV1;
 151              		.loc 1 53 35 is_stmt 0 view .LVU36
 152 0032 0394     		str	r4, [sp, #12]
  54:Src/main.c    ****   RCC_ClkInitStruct.APB2CLKDivider = RCC_HCLK_DIV1;
 153              		.loc 1 54 3 is_stmt 1 view .LVU37
  54:Src/main.c    ****   RCC_ClkInitStruct.APB2CLKDivider = RCC_HCLK_DIV1;
 154              		.loc 1 54 36 is_stmt 0 view .LVU38
 155 0034 0494     		str	r4, [sp, #16]
  55:Src/main.c    **** 
 156              		.loc 1 55 3 is_stmt 1 view .LVU39
  55:Src/main.c    **** 
 157              		.loc 1 55 36 is_stmt 0 view .LVU40
 158 0036 0594     		str	r4, [sp, #20]
  57:Src/main.c    ****   {
 159              		.loc 1 57 3 is_stmt 1 view .LVU41
  57:Src/main.c    ****   {
 160              		.loc 1 57 7 is_stmt 0 view .LVU42
 161 0038 2146     		mov	r1, r4
 162 003a 01A8     		add	r0, sp, #4
 163 003c FFF7FEFF 		bl	HAL_RCC_ClockConfig
 164              	.LVL3:
  61:Src/main.c    **** 
 165              		.loc 1 61 1 view .LVU43
 166 0040 10B0     		add	sp, sp, #64
 167              	.LCFI5:
 168              		.cfi_def_cfa_offset 8
 169              		@ sp needed
 170 0042 10BD     		pop	{r4, pc}
 171              		.cfi_endproc
 172              	.LFE67:
 174              		.section	.text.main,"ax",%progbits
 175              		.align	1
 176              		.global	main
 177              		.syntax unified
 178              		.thumb
 179              		.thumb_func
 180              		.fpu softvfp
 182              	main:
 183              	.LFB66:
ARM GAS  C:\Users\behun\AppData\Local\Temp\ccqf1pAO.s 			page 6


   7:Src/main.c    ****   HAL_Init();
 184              		.loc 1 7 1 is_stmt 1 view -0
 185              		.cfi_startproc
 186              		@ args = 0, pretend = 0, frame = 0
 187              		@ frame_needed = 0, uses_anonymous_args = 0
 188 0000 38B5     		push	{r3, r4, r5, lr}
 189              	.LCFI6:
 190              		.cfi_def_cfa_offset 16
 191              		.cfi_offset 3, -16
 192              		.cfi_offset 4, -12
 193              		.cfi_offset 5, -8
 194              		.cfi_offset 14, -4
   8:Src/main.c    ****   SystemClock_Config();
 195              		.loc 1 8 3 view .LVU45
 196 0002 FFF7FEFF 		bl	HAL_Init
 197              	.LVL4:
   9:Src/main.c    ****   MX_GPIO_Init();
 198              		.loc 1 9 3 view .LVU46
 199 0006 FFF7FEFF 		bl	SystemClock_Config
 200              	.LVL5:
  10:Src/main.c    ****   uint32_t timeLed1 = HAL_GetTick();
 201              		.loc 1 10 3 view .LVU47
 202 000a FFF7FEFF 		bl	MX_GPIO_Init
 203              	.LVL6:
  11:Src/main.c    ****   uint32_t timeLed2 = HAL_GetTick();
 204              		.loc 1 11 3 view .LVU48
  11:Src/main.c    ****   uint32_t timeLed2 = HAL_GetTick();
 205              		.loc 1 11 23 is_stmt 0 view .LVU49
 206 000e FFF7FEFF 		bl	HAL_GetTick
 207              	.LVL7:
 208 0012 0546     		mov	r5, r0
 209              	.LVL8:
  12:Src/main.c    ****   while (1)
 210              		.loc 1 12 3 is_stmt 1 view .LVU50
  12:Src/main.c    ****   while (1)
 211              		.loc 1 12 23 is_stmt 0 view .LVU51
 212 0014 FFF7FEFF 		bl	HAL_GetTick
 213              	.LVL9:
  12:Src/main.c    ****   while (1)
 214              		.loc 1 12 23 view .LVU52
 215 0018 0446     		mov	r4, r0
 216              	.LVL10:
  12:Src/main.c    ****   while (1)
 217              		.loc 1 12 23 view .LVU53
 218 001a 0EE0     		b	.L8
 219              	.LVL11:
 220              	.L12:
  17:Src/main.c    ****       timeLed1 = HAL_GetTick();
 221              		.loc 1 17 7 is_stmt 1 view .LVU54
 222 001c 4021     		movs	r1, #64
 223 001e 0D48     		ldr	r0, .L14
 224 0020 FFF7FEFF 		bl	HAL_GPIO_TogglePin
 225              	.LVL12:
  18:Src/main.c    ****     }
 226              		.loc 1 18 7 view .LVU55
  18:Src/main.c    ****     }
 227              		.loc 1 18 18 is_stmt 0 view .LVU56
ARM GAS  C:\Users\behun\AppData\Local\Temp\ccqf1pAO.s 			page 7


 228 0024 FFF7FEFF 		bl	HAL_GetTick
 229              	.LVL13:
 230 0028 0546     		mov	r5, r0
 231              	.LVL14:
  18:Src/main.c    ****     }
 232              		.loc 1 18 18 view .LVU57
 233 002a 0CE0     		b	.L9
 234              	.LVL15:
 235              	.L13:
  22:Src/main.c    ****       timeLed2 = HAL_GetTick();
 236              		.loc 1 22 7 is_stmt 1 view .LVU58
 237 002c 8021     		movs	r1, #128
 238 002e 0948     		ldr	r0, .L14
 239 0030 FFF7FEFF 		bl	HAL_GPIO_TogglePin
 240              	.LVL16:
  23:Src/main.c    ****     }
 241              		.loc 1 23 7 view .LVU59
  23:Src/main.c    ****     }
 242              		.loc 1 23 18 is_stmt 0 view .LVU60
 243 0034 FFF7FEFF 		bl	HAL_GetTick
 244              	.LVL17:
 245 0038 0446     		mov	r4, r0
 246              	.LVL18:
 247              	.L8:
  13:Src/main.c    ****   {
 248              		.loc 1 13 3 is_stmt 1 view .LVU61
  15:Src/main.c    ****     {
 249              		.loc 1 15 5 view .LVU62
  15:Src/main.c    ****     {
 250              		.loc 1 15 8 is_stmt 0 view .LVU63
 251 003a FFF7FEFF 		bl	HAL_GetTick
 252              	.LVL19:
  15:Src/main.c    ****     {
 253              		.loc 1 15 22 view .LVU64
 254 003e 401B     		subs	r0, r0, r5
  15:Src/main.c    ****     {
 255              		.loc 1 15 7 view .LVU65
 256 0040 B0F5FA7F 		cmp	r0, #500
 257 0044 EAD8     		bhi	.L12
 258              	.L9:
  20:Src/main.c    ****     {
 259              		.loc 1 20 5 is_stmt 1 view .LVU66
  20:Src/main.c    ****     {
 260              		.loc 1 20 8 is_stmt 0 view .LVU67
 261 0046 FFF7FEFF 		bl	HAL_GetTick
 262              	.LVL20:
  20:Src/main.c    ****     {
 263              		.loc 1 20 22 view .LVU68
 264 004a 001B     		subs	r0, r0, r4
  20:Src/main.c    ****     {
 265              		.loc 1 20 7 view .LVU69
 266 004c B0F57A7F 		cmp	r0, #1000
 267 0050 F3D9     		bls	.L8
  20:Src/main.c    ****     {
 268              		.loc 1 20 7 view .LVU70
 269 0052 EBE7     		b	.L13
 270              	.L15:
ARM GAS  C:\Users\behun\AppData\Local\Temp\ccqf1pAO.s 			page 8


 271              		.align	2
 272              	.L14:
 273 0054 00100140 		.word	1073811456
 274              		.cfi_endproc
 275              	.LFE66:
 277              		.section	.text.Error_Handler,"ax",%progbits
 278              		.align	1
 279              		.global	Error_Handler
 280              		.syntax unified
 281              		.thumb
 282              		.thumb_func
 283              		.fpu softvfp
 285              	Error_Handler:
 286              	.LFB69:
  81:Src/main.c    **** 
  82:Src/main.c    **** /* USER CODE BEGIN 4 */
  83:Src/main.c    **** 
  84:Src/main.c    **** /* USER CODE END 4 */
  85:Src/main.c    **** 
  86:Src/main.c    **** /**
  87:Src/main.c    ****   * @brief  This function is executed in case of error occurrence.
  88:Src/main.c    ****   * @retval None
  89:Src/main.c    ****   */
  90:Src/main.c    **** void Error_Handler(void)
  91:Src/main.c    **** {
 287              		.loc 1 91 1 is_stmt 1 view -0
 288              		.cfi_startproc
 289              		@ args = 0, pretend = 0, frame = 0
 290              		@ frame_needed = 0, uses_anonymous_args = 0
 291              		@ link register save eliminated.
  92:Src/main.c    ****   /* USER CODE BEGIN Error_Handler_Debug */
  93:Src/main.c    ****   /* User can add his own implementation to report the HAL error return state */
  94:Src/main.c    **** 
  95:Src/main.c    ****   /* USER CODE END Error_Handler_Debug */
  96:Src/main.c    **** }
 292              		.loc 1 96 1 view .LVU72
 293 0000 7047     		bx	lr
 294              		.cfi_endproc
 295              	.LFE69:
 297              		.text
 298              	.Letext0:
 299              		.file 2 "c:\\program files (x86)\\gnu tools arm embedded\\8 2019-q3-update\\arm-none-eabi\\include
 300              		.file 3 "c:\\program files (x86)\\gnu tools arm embedded\\8 2019-q3-update\\arm-none-eabi\\include
 301              		.file 4 "Drivers/CMSIS/Include/core_cm3.h"
 302              		.file 5 "Drivers/CMSIS/Device/ST/STM32F1xx/Include/system_stm32f1xx.h"
 303              		.file 6 "Drivers/CMSIS/Device/ST/STM32F1xx/Include/stm32f103xe.h"
 304              		.file 7 "c:\\program files (x86)\\gnu tools arm embedded\\8 2019-q3-update\\lib\\gcc\\arm-none-eab
 305              		.file 8 "c:\\program files (x86)\\gnu tools arm embedded\\8 2019-q3-update\\arm-none-eabi\\include
 306              		.file 9 "c:\\program files (x86)\\gnu tools arm embedded\\8 2019-q3-update\\arm-none-eabi\\include
 307              		.file 10 "c:\\program files (x86)\\gnu tools arm embedded\\8 2019-q3-update\\arm-none-eabi\\includ
 308              		.file 11 "Drivers/STM32F1xx_HAL_Driver/Inc/stm32f1xx_hal_rcc.h"
 309              		.file 12 "Drivers/STM32F1xx_HAL_Driver/Inc/stm32f1xx_hal_rcc_ex.h"
 310              		.file 13 "Drivers/STM32F1xx_HAL_Driver/Inc/stm32f1xx_hal_gpio.h"
 311              		.file 14 "Drivers/STM32F1xx_HAL_Driver/Inc/stm32f1xx_hal_def.h"
 312              		.file 15 "Drivers/STM32F1xx_HAL_Driver/Inc/stm32f1xx_hal.h"
 313              		.file 16 "<built-in>"
ARM GAS  C:\Users\behun\AppData\Local\Temp\ccqf1pAO.s 			page 9

