ARM GAS  C:\Users\behun\AppData\Local\Temp\cc05xKvk.s 			page 1


   1              		.cpu cortex-m3
   2              		.eabi_attribute 20, 1
   3              		.eabi_attribute 21, 1
   4              		.eabi_attribute 23, 3
   5              		.eabi_attribute 24, 1
   6              		.eabi_attribute 25, 1
   7              		.eabi_attribute 26, 1
   8              		.eabi_attribute 30, 1
   9              		.eabi_attribute 34, 1
  10              		.eabi_attribute 18, 4
  11              		.file	"main.c"
  12              		.text
  13              	.Ltext0:
  14              		.cfi_sections	.debug_frame
  15              		.section	.text.u8g2_gpio_and_delay_stm32,"ax",%progbits
  16              		.align	1
  17              		.global	u8g2_gpio_and_delay_stm32
  18              		.arch armv7-m
  19              		.syntax unified
  20              		.thumb
  21              		.thumb_func
  22              		.fpu softvfp
  24              	u8g2_gpio_and_delay_stm32:
  25              	.LVL0:
  26              	.LFB68:
  27              		.file 1 "Src/main.c"
   1:Src/main.c    **** /* USER CODE BEGIN Header */
   2:Src/main.c    **** /**
   3:Src/main.c    ****   ******************************************************************************
   4:Src/main.c    ****   * @file           : main.c
   5:Src/main.c    ****   * @brief          : Main program body
   6:Src/main.c    ****   ******************************************************************************
   7:Src/main.c    ****   * @attention
   8:Src/main.c    ****   *
   9:Src/main.c    ****   * <h2><center>&copy; Copyright (c) 2019 STMicroelectronics.
  10:Src/main.c    ****   * All rights reserved.</center></h2>
  11:Src/main.c    ****   *
  12:Src/main.c    ****   * This software component is licensed by ST under Ultimate Liberty license
  13:Src/main.c    ****   * SLA0044, the "License"; You may not use this file except in compliance with
  14:Src/main.c    ****   * the License. You may obtain a copy of the License at:
  15:Src/main.c    ****   *                             www.st.com/SLA0044
  16:Src/main.c    ****   *
  17:Src/main.c    ****   ******************************************************************************
  18:Src/main.c    ****   */
  19:Src/main.c    **** /* USER CODE END Header */
  20:Src/main.c    **** 
  21:Src/main.c    **** /* Includes ------------------------------------------------------------------*/
  22:Src/main.c    **** #include "main.h"
  23:Src/main.c    **** #include "i2c.h"
  24:Src/main.c    **** #include "iwdg.h"
  25:Src/main.c    **** #include "usart.h"
  26:Src/main.c    **** #include "usb_device.h"
  27:Src/main.c    **** #include "gpio.h"
  28:Src/main.c    **** #include <stdlib.h>
  29:Src/main.c    **** #include <string.h>
  30:Src/main.c    **** #include <errno.h>
  31:Src/main.c    **** #include <stdio.h>
ARM GAS  C:\Users\behun\AppData\Local\Temp\cc05xKvk.s 			page 2


  32:Src/main.c    **** #include <unistd.h>
  33:Src/main.c    **** #include "u8g2.h"
  34:Src/main.c    **** #include "key.h"
  35:Src/main.c    **** #include "logo.h"
  36:Src/main.c    **** #include "main_screen.h"
  37:Src/main.c    **** #include "info_screen.h"
  38:Src/main.c    **** #include "spi.h"
  39:Src/main.c    **** 
  40:Src/main.c    **** int _write(int file, char *data, int len);
  41:Src/main.c    **** 
  42:Src/main.c    **** #define LCD_RST_1       HAL_GPIO_WritePin(GPIOA, GPIO_PIN_6,  GPIO_PIN_SET)
  43:Src/main.c    **** #define LCD_RST_0       HAL_GPIO_WritePin(GPIOA, GPIO_PIN_6,  GPIO_PIN_RESET)
  44:Src/main.c    **** #define LCD_RS_1        HAL_GPIO_WritePin(GPIOA, GPIO_PIN_4, GPIO_PIN_SET)
  45:Src/main.c    **** #define LCD_RS_0        HAL_GPIO_WritePin(GPIOA, GPIO_PIN_4, GPIO_PIN_RESET)
  46:Src/main.c    **** 
  47:Src/main.c    **** void SystemClock_Config(void);
  48:Src/main.c    **** uint8_t u8g2_gpio_and_delay_stm32(U8X8_UNUSED u8x8_t *u8x8, U8X8_UNUSED uint8_t msg, U8X8_UNUSED ui
  49:Src/main.c    **** uint8_t u8x8_byte_4wire_hw_spi(u8x8_t *u8x8, uint8_t msg, uint8_t arg_int, void *arg_ptr);
  50:Src/main.c    **** void MX_GPIO_Init(void);
  51:Src/main.c    **** /*Variable for interface monitor*/
  52:Src/main.c    **** 
  53:Src/main.c    **** u8g2_t u8g2;
  54:Src/main.c    **** 
  55:Src/main.c    **** int main(void)
  56:Src/main.c    **** {
  57:Src/main.c    ****   HAL_Init();
  58:Src/main.c    ****   SystemClock_Config();
  59:Src/main.c    ****   MX_GPIO_Init();
  60:Src/main.c    ****   MX_SPI1_Init();
  61:Src/main.c    ****   // MX_I2C1_Init();
  62:Src/main.c    ****   // MX_I2C2_Init();
  63:Src/main.c    ****   // MX_IWDG_Init();
  64:Src/main.c    ****   // MX_USART1_UART_Init();
  65:Src/main.c    ****   // MX_USART2_UART_Init();
  66:Src/main.c    ****   
  67:Src/main.c    ****   MX_USB_DEVICE_Init();
  68:Src/main.c    ****   KeyInit();
  69:Src/main.c    ****   u8g2_Setup_st7920_s_128x64_f(&u8g2, U8G2_R0, u8x8_byte_4wire_hw_spi, u8g2_gpio_and_delay_stm32); 
  70:Src/main.c    ****   u8g2_InitDisplay(&u8g2);
  71:Src/main.c    ****   u8g2_SetPowerSave(&u8g2, 0); // wake up display
  72:Src/main.c    **** 
  73:Src/main.c    ****   LCD_RST_0;
  74:Src/main.c    ****   HAL_Delay(10);
  75:Src/main.c    ****   LCD_RST_1;
  76:Src/main.c    **** 
  77:Src/main.c    ****   Logo();
  78:Src/main.c    ****   HAL_Delay(3000);
  79:Src/main.c    ****   main_screen_init();
  80:Src/main.c    ****   Info_Screen_Init();
  81:Src/main.c    ****   uint32_t timeRefesh = HAL_GetTick();
  82:Src/main.c    ****   // uint8_t timeSend;
  83:Src/main.c    ****   while (1)
  84:Src/main.c    ****   {
  85:Src/main.c    ****     /* timeSend = HAL_GetTick();
  86:Src/main.c    ****     u8g2_SendBuffer(&u8g2);
  87:Src/main.c    ****     printf("Time Send Buff: %d \n", HAL_GetTick() - timeSend);*/
  88:Src/main.c    ****     // u8g2_ClearBuffer(&u8g2);
ARM GAS  C:\Users\behun\AppData\Local\Temp\cc05xKvk.s 			page 3


  89:Src/main.c    ****     Main_Screen_Manage();
  90:Src/main.c    ****     // Info_Screen_Manage();
  91:Src/main.c    ****     // SysWork(Info_Scr.SysWork);
  92:Src/main.c    ****     // Filter_Time(Info_Scr.Filter_Time);
  93:Src/main.c    ****     // UV_Time(Info_Scr.UV);
  94:Src/main.c    **** 
  95:Src/main.c    ****     if(HAL_GetTick() - timeRefesh > 100)
  96:Src/main.c    ****     {
  97:Src/main.c    ****       u8g2_SendBuffer(&u8g2);
  98:Src/main.c    ****       timeRefesh = HAL_GetTick();
  99:Src/main.c    ****     }
 100:Src/main.c    ****     /* USER CODE END WHILE */
 101:Src/main.c    ****     
 102:Src/main.c    ****     /* USER CODE BEGIN 3 */
 103:Src/main.c    ****   }
 104:Src/main.c    ****   /* USER CODE END 3 */
 105:Src/main.c    **** }
 106:Src/main.c    **** 
 107:Src/main.c    **** /**
 108:Src/main.c    ****   * @brief System Clock Configuration
 109:Src/main.c    ****   * @retval None
 110:Src/main.c    ****   */
 111:Src/main.c    **** void SystemClock_Config(void)
 112:Src/main.c    **** {
 113:Src/main.c    ****   RCC_OscInitTypeDef RCC_OscInitStruct = {0};
 114:Src/main.c    ****   RCC_ClkInitTypeDef RCC_ClkInitStruct = {0};
 115:Src/main.c    ****   RCC_PeriphCLKInitTypeDef PeriphClkInit = {0};
 116:Src/main.c    **** 
 117:Src/main.c    ****   /** Initializes the CPU, AHB and APB busses clocks 
 118:Src/main.c    ****   */
 119:Src/main.c    ****   RCC_OscInitStruct.OscillatorType = RCC_OSCILLATORTYPE_LSI|RCC_OSCILLATORTYPE_HSE;
 120:Src/main.c    ****   RCC_OscInitStruct.HSEState = RCC_HSE_ON;
 121:Src/main.c    ****   RCC_OscInitStruct.HSEPredivValue = RCC_HSE_PREDIV_DIV1;
 122:Src/main.c    ****   RCC_OscInitStruct.HSIState = RCC_HSI_ON;
 123:Src/main.c    ****   RCC_OscInitStruct.LSIState = RCC_LSI_ON;
 124:Src/main.c    ****   RCC_OscInitStruct.PLL.PLLState = RCC_PLL_ON;
 125:Src/main.c    ****   RCC_OscInitStruct.PLL.PLLSource = RCC_PLLSOURCE_HSE;
 126:Src/main.c    ****   RCC_OscInitStruct.PLL.PLLMUL = RCC_PLL_MUL9;
 127:Src/main.c    ****   if (HAL_RCC_OscConfig(&RCC_OscInitStruct) != HAL_OK)
 128:Src/main.c    ****   {
 129:Src/main.c    ****     Error_Handler();
 130:Src/main.c    ****   }
 131:Src/main.c    ****   /** Initializes the CPU, AHB and APB busses clocks 
 132:Src/main.c    ****   */
 133:Src/main.c    ****   RCC_ClkInitStruct.ClockType = RCC_CLOCKTYPE_HCLK|RCC_CLOCKTYPE_SYSCLK
 134:Src/main.c    ****                               |RCC_CLOCKTYPE_PCLK1|RCC_CLOCKTYPE_PCLK2;
 135:Src/main.c    ****   RCC_ClkInitStruct.SYSCLKSource = RCC_SYSCLKSOURCE_PLLCLK;
 136:Src/main.c    ****   RCC_ClkInitStruct.AHBCLKDivider = RCC_SYSCLK_DIV1;
 137:Src/main.c    ****   RCC_ClkInitStruct.APB1CLKDivider = RCC_HCLK_DIV2;
 138:Src/main.c    ****   RCC_ClkInitStruct.APB2CLKDivider = RCC_HCLK_DIV1;
 139:Src/main.c    **** 
 140:Src/main.c    ****   
 141:Src/main.c    ****   if (HAL_RCC_ClockConfig(&RCC_ClkInitStruct, FLASH_LATENCY_2) != HAL_OK)
 142:Src/main.c    ****   {
 143:Src/main.c    ****     Error_Handler();
 144:Src/main.c    ****   }
 145:Src/main.c    ****   PeriphClkInit.PeriphClockSelection = RCC_PERIPHCLK_USB;
ARM GAS  C:\Users\behun\AppData\Local\Temp\cc05xKvk.s 			page 4


 146:Src/main.c    ****   PeriphClkInit.UsbClockSelection = RCC_USBCLKSOURCE_PLL_DIV1_5;
 147:Src/main.c    ****   if (HAL_RCCEx_PeriphCLKConfig(&PeriphClkInit) != HAL_OK)
 148:Src/main.c    ****   {
 149:Src/main.c    ****     Error_Handler();
 150:Src/main.c    ****   }
 151:Src/main.c    **** }
 152:Src/main.c    **** 
 153:Src/main.c    **** /* USER CODE BEGIN 4 */
 154:Src/main.c    **** 
 155:Src/main.c    **** /* USER CODE END 4 */
 156:Src/main.c    **** uint8_t u8g2_gpio_and_delay_stm32(U8X8_UNUSED u8x8_t *u8x8, U8X8_UNUSED uint8_t msg, U8X8_UNUSED ui
 157:Src/main.c    **** {
  28              		.loc 1 157 1 view -0
  29              		.cfi_startproc
  30              		@ args = 0, pretend = 0, frame = 0
  31              		@ frame_needed = 0, uses_anonymous_args = 0
  32              		@ link register save eliminated.
 158:Src/main.c    ****   //   GPIO_InitTypeDef  gpioinitstruct;
 159:Src/main.c    ****   
 160:Src/main.c    ****   //   switch(msg){
 161:Src/main.c    ****   //   //Function to define the logic level of the RESET line
 162:Src/main.c    ****     // case U8X8_MSG_GPIO_RESET:
 163:Src/main.c    ****     //   if (arg_int) LCD_RST_1;
 164:Src/main.c    ****     //   else LCD_RST_0;
 165:Src/main.c    **** 
 166:Src/main.c    ****     // break;
 167:Src/main.c    ****     
 168:Src/main.c    ****   //   default:
 169:Src/main.c    ****   //     return 0; //A message was received which is not implemented, return 0 to indicate an error
 170:Src/main.c    ****   // }
 171:Src/main.c    **** 
 172:Src/main.c    ****   return 1; // command processed successfully.
  33              		.loc 1 172 3 view .LVU1
 173:Src/main.c    **** }
  34              		.loc 1 173 1 is_stmt 0 view .LVU2
  35 0000 0120     		movs	r0, #1
  36              	.LVL1:
  37              		.loc 1 173 1 view .LVU3
  38 0002 7047     		bx	lr
  39              		.cfi_endproc
  40              	.LFE68:
  42              		.section	.text.u8x8_byte_4wire_hw_spi,"ax",%progbits
  43              		.align	1
  44              		.global	u8x8_byte_4wire_hw_spi
  45              		.syntax unified
  46              		.thumb
  47              		.thumb_func
  48              		.fpu softvfp
  50              	u8x8_byte_4wire_hw_spi:
  51              	.LVL2:
  52              	.LFB69:
 174:Src/main.c    **** 
 175:Src/main.c    **** 
 176:Src/main.c    **** // uint8_t u8g2_gpio_and_delay_stm32(U8X8_UNUSED u8x8_t *u8x8, U8X8_UNUSED uint8_t msg, U8X8_UNUSED
 177:Src/main.c    **** // {
 178:Src/main.c    **** //     GPIO_InitTypeDef  gpioinitstruct;
 179:Src/main.c    ****   
ARM GAS  C:\Users\behun\AppData\Local\Temp\cc05xKvk.s 			page 5


 180:Src/main.c    **** //     switch(msg){
 181:Src/main.c    **** 
 182:Src/main.c    **** //     //Function which implements a delay, arg_int contains the amount of ms
 183:Src/main.c    **** //     case U8X8_MSG_GPIO_AND_DELAY_INIT:
 184:Src/main.c    **** 
 185:Src/main.c    **** //     __HAL_RCC_GPIOA_CLK_ENABLE();
 186:Src/main.c    **** //     /* Configure the GPIO_LED pin */
 187:Src/main.c    **** //     gpioinitstruct.Pin    = GPIO_PIN_3|GPIO_PIN_4|GPIO_PIN_5|GPIO_PIN_7;
 188:Src/main.c    **** //     gpioinitstruct.Mode   = GPIO_MODE_OUTPUT_PP;
 189:Src/main.c    **** //     gpioinitstruct.Pull   = GPIO_NOPULL;
 190:Src/main.c    **** //     gpioinitstruct.Speed  = GPIO_SPEED_FREQ_HIGH;
 191:Src/main.c    **** //     HAL_GPIO_Init(GPIOA, &gpioinitstruct);
 192:Src/main.c    **** //     HAL_GPIO_WritePin(GPIOA, GPIO_PIN_3|GPIO_PIN_4|GPIO_PIN_5|GPIO_PIN_7, GPIO_PIN_SET);
 193:Src/main.c    **** 
 194:Src/main.c    **** //     break;
 195:Src/main.c    **** //     //Function which implements a delay, arg_int contains the amount of ms
 196:Src/main.c    **** //     case U8X8_MSG_DELAY_MILLI:
 197:Src/main.c    **** //     HAL_Delay(arg_int);
 198:Src/main.c    **** //     break;
 199:Src/main.c    **** //     //Function which delays 10us
 200:Src/main.c    **** //     case U8X8_MSG_DELAY_10MICRO:
 201:Src/main.c    **** //     delay_us(10);
 202:Src/main.c    **** //     break;
 203:Src/main.c    **** //     //Function which delays 100ns
 204:Src/main.c    **** //     case U8X8_MSG_DELAY_100NANO:
 205:Src/main.c    **** //     __NOP();
 206:Src/main.c    **** 
 207:Src/main.c    **** //     break;
 208:Src/main.c    **** //     //Function to define the logic level of the clockline
 209:Src/main.c    **** //     case U8X8_MSG_GPIO_SPI_CLOCK:
 210:Src/main.c    **** //       if (arg_int) LCD_SCLK_1;
 211:Src/main.c    **** //       else LCD_SCLK_0;
 212:Src/main.c    **** 
 213:Src/main.c    **** //     break;
 214:Src/main.c    **** //     //Function to define the logic level of the data line to the display
 215:Src/main.c    **** //     case U8X8_MSG_GPIO_SPI_DATA:
 216:Src/main.c    **** //       if (arg_int) LCD_SID_1;
 217:Src/main.c    **** //       else LCD_SID_0;
 218:Src/main.c    **** 
 219:Src/main.c    **** //     break;
 220:Src/main.c    **** 
 221:Src/main.c    **** //     // Function to define the logic level of the CS line
 222:Src/main.c    **** //     case U8X8_MSG_GPIO_CS1:
 223:Src/main.c    **** //       if (arg_int) LCD_RS_1 ;
 224:Src/main.c    **** //       else LCD_RS_0;
 225:Src/main.c    **** 
 226:Src/main.c    **** //     break;
 227:Src/main.c    **** //     //Function to define the logic level of the Data/ Command line
 228:Src/main.c    **** //     case U8X8_MSG_GPIO_DC:
 229:Src/main.c    **** 
 230:Src/main.c    **** //     break;
 231:Src/main.c    **** //     //Function to define the logic level of the RESET line
 232:Src/main.c    **** //     case U8X8_MSG_GPIO_RESET:
 233:Src/main.c    **** //       if (arg_int) LCD_RST_1;
 234:Src/main.c    **** //       else LCD_RST_0;
 235:Src/main.c    **** 
 236:Src/main.c    **** //     break;
ARM GAS  C:\Users\behun\AppData\Local\Temp\cc05xKvk.s 			page 6


 237:Src/main.c    ****     
 238:Src/main.c    **** //     default:
 239:Src/main.c    **** //       return 0; //A message was received which is not implemented, return 0 to indicate an error
 240:Src/main.c    **** //   }
 241:Src/main.c    **** 
 242:Src/main.c    **** //   return 1; // command processed successfully.
 243:Src/main.c    **** // }
 244:Src/main.c    **** 
 245:Src/main.c    **** uint8_t u8x8_byte_4wire_hw_spi(u8x8_t *u8x8, uint8_t msg, uint8_t arg_int, void *arg_ptr)
 246:Src/main.c    **** {
  53              		.loc 1 246 1 is_stmt 1 view -0
  54              		.cfi_startproc
  55              		@ args = 0, pretend = 0, frame = 8
  56              		@ frame_needed = 0, uses_anonymous_args = 0
  57              		.loc 1 246 1 is_stmt 0 view .LVU5
  58 0000 30B5     		push	{r4, r5, lr}
  59              	.LCFI0:
  60              		.cfi_def_cfa_offset 12
  61              		.cfi_offset 4, -12
  62              		.cfi_offset 5, -8
  63              		.cfi_offset 14, -4
  64 0002 83B0     		sub	sp, sp, #12
  65              	.LCFI1:
  66              		.cfi_def_cfa_offset 24
 247:Src/main.c    ****   uint8_t byte;
  67              		.loc 1 247 3 is_stmt 1 view .LVU6
 248:Src/main.c    ****   uint8_t *data;
  68              		.loc 1 248 3 view .LVU7
 249:Src/main.c    ****  
 250:Src/main.c    ****   switch(msg)
  69              		.loc 1 250 3 view .LVU8
  70 0004 1829     		cmp	r1, #24
  71 0006 19D0     		beq	.L3
  72 0008 1446     		mov	r4, r2
  73 000a 1D46     		mov	r5, r3
  74 000c 1929     		cmp	r1, #25
  75 000e 1DD0     		beq	.L4
  76 0010 1729     		cmp	r1, #23
  77 0012 02D0     		beq	.L5
 251:Src/main.c    ****   {
 252:Src/main.c    ****     case U8X8_MSG_BYTE_SEND:
 253:Src/main.c    ****       data = (uint8_t *)arg_ptr;
 254:Src/main.c    ****       while( arg_int > 0 )
 255:Src/main.c    ****       {
 256:Src/main.c    ****         byte = *data;
 257:Src/main.c    ****         data++;
 258:Src/main.c    ****         arg_int--;
 259:Src/main.c    ****         HAL_SPI_Transmit(&hspi1, &byte, 1, 100);
 260:Src/main.c    ****       }
 261:Src/main.c    ****       break;
 262:Src/main.c    ****     case U8X8_MSG_BYTE_START_TRANSFER:
 263:Src/main.c    ****       //HAL_GPIO_WritePin(SPI1_CS_GPIO_Port, SPI1_CS_Pin, GPIO_PIN_SET);
 264:Src/main.c    ****       LCD_RS_1;
 265:Src/main.c    ****       __NOP(); // 21 ns
 266:Src/main.c    ****       break;
 267:Src/main.c    ****     case U8X8_MSG_BYTE_END_TRANSFER:
 268:Src/main.c    ****       __NOP(); // 21 ns
ARM GAS  C:\Users\behun\AppData\Local\Temp\cc05xKvk.s 			page 7


 269:Src/main.c    ****       //HAL_GPIO_WritePin(SPI1_CS_GPIO_Port, SPI1_CS_Pin, GPIO_PIN_RESET);
 270:Src/main.c    ****       LCD_RS_0;
 271:Src/main.c    ****       break;
 272:Src/main.c    ****     default:
 273:Src/main.c    ****       return 0;
  78              		.loc 1 273 14 is_stmt 0 view .LVU9
  79 0014 0020     		movs	r0, #0
  80              	.LVL3:
  81              	.L6:
 274:Src/main.c    ****   }
 275:Src/main.c    ****   return 1;
 276:Src/main.c    **** }
  82              		.loc 1 276 1 view .LVU10
  83 0016 03B0     		add	sp, sp, #12
  84              	.LCFI2:
  85              		.cfi_remember_state
  86              		.cfi_def_cfa_offset 12
  87              		@ sp needed
  88 0018 30BD     		pop	{r4, r5, pc}
  89              	.L5:
  90              	.LCFI3:
  91              		.cfi_restore_state
  92              	.LVL4:
 254:Src/main.c    ****       {
  93              		.loc 1 254 12 view .LVU11
  94 001a 6CB1     		cbz	r4, .L9
 256:Src/main.c    ****         data++;
  95              		.loc 1 256 9 is_stmt 1 view .LVU12
 256:Src/main.c    ****         data++;
  96              		.loc 1 256 16 is_stmt 0 view .LVU13
  97 001c 15F8013B 		ldrb	r3, [r5], #1	@ zero_extendqisi2
  98              	.LVL5:
 256:Src/main.c    ****         data++;
  99              		.loc 1 256 14 view .LVU14
 100 0020 8DF80730 		strb	r3, [sp, #7]
 257:Src/main.c    ****         arg_int--;
 101              		.loc 1 257 9 is_stmt 1 view .LVU15
 102              	.LVL6:
 258:Src/main.c    ****         HAL_SPI_Transmit(&hspi1, &byte, 1, 100);
 103              		.loc 1 258 9 view .LVU16
 258:Src/main.c    ****         HAL_SPI_Transmit(&hspi1, &byte, 1, 100);
 104              		.loc 1 258 16 is_stmt 0 view .LVU17
 105 0024 013C     		subs	r4, r4, #1
 106              	.LVL7:
 258:Src/main.c    ****         HAL_SPI_Transmit(&hspi1, &byte, 1, 100);
 107              		.loc 1 258 16 view .LVU18
 108 0026 E4B2     		uxtb	r4, r4
 109              	.LVL8:
 259:Src/main.c    ****       }
 110              		.loc 1 259 9 is_stmt 1 view .LVU19
 111 0028 6423     		movs	r3, #100
 112 002a 0122     		movs	r2, #1
 113 002c 0DF10701 		add	r1, sp, #7
 114 0030 0A48     		ldr	r0, .L10
 115 0032 FFF7FEFF 		bl	HAL_SPI_Transmit
 116              	.LVL9:
 117 0036 F0E7     		b	.L5
ARM GAS  C:\Users\behun\AppData\Local\Temp\cc05xKvk.s 			page 8


 118              	.L9:
 275:Src/main.c    **** }
 119              		.loc 1 275 10 is_stmt 0 view .LVU20
 120 0038 0120     		movs	r0, #1
 121 003a ECE7     		b	.L6
 122              	.LVL10:
 123              	.L3:
 264:Src/main.c    ****       __NOP(); // 21 ns
 124              		.loc 1 264 7 is_stmt 1 view .LVU21
 125 003c 0122     		movs	r2, #1
 126              	.LVL11:
 264:Src/main.c    ****       __NOP(); // 21 ns
 127              		.loc 1 264 7 is_stmt 0 view .LVU22
 128 003e 1021     		movs	r1, #16
 129              	.LVL12:
 264:Src/main.c    ****       __NOP(); // 21 ns
 130              		.loc 1 264 7 view .LVU23
 131 0040 0748     		ldr	r0, .L10+4
 132              	.LVL13:
 264:Src/main.c    ****       __NOP(); // 21 ns
 133              		.loc 1 264 7 view .LVU24
 134 0042 FFF7FEFF 		bl	HAL_GPIO_WritePin
 135              	.LVL14:
 265:Src/main.c    ****       break;
 136              		.loc 1 265 7 is_stmt 1 view .LVU25
 137              	.LBB6:
 138              	.LBI6:
 139              		.file 2 "Drivers/CMSIS/Include/cmsis_gcc.h"
   1:Drivers/CMSIS/Include/cmsis_gcc.h **** /**************************************************************************//**
   2:Drivers/CMSIS/Include/cmsis_gcc.h ****  * @file     cmsis_gcc.h
   3:Drivers/CMSIS/Include/cmsis_gcc.h ****  * @brief    CMSIS Cortex-M Core Function/Instruction Header File
   4:Drivers/CMSIS/Include/cmsis_gcc.h ****  * @version  V4.30
   5:Drivers/CMSIS/Include/cmsis_gcc.h ****  * @date     20. October 2015
   6:Drivers/CMSIS/Include/cmsis_gcc.h ****  ******************************************************************************/
   7:Drivers/CMSIS/Include/cmsis_gcc.h **** /* Copyright (c) 2009 - 2015 ARM LIMITED
   8:Drivers/CMSIS/Include/cmsis_gcc.h **** 
   9:Drivers/CMSIS/Include/cmsis_gcc.h ****    All rights reserved.
  10:Drivers/CMSIS/Include/cmsis_gcc.h ****    Redistribution and use in source and binary forms, with or without
  11:Drivers/CMSIS/Include/cmsis_gcc.h ****    modification, are permitted provided that the following conditions are met:
  12:Drivers/CMSIS/Include/cmsis_gcc.h ****    - Redistributions of source code must retain the above copyright
  13:Drivers/CMSIS/Include/cmsis_gcc.h ****      notice, this list of conditions and the following disclaimer.
  14:Drivers/CMSIS/Include/cmsis_gcc.h ****    - Redistributions in binary form must reproduce the above copyright
  15:Drivers/CMSIS/Include/cmsis_gcc.h ****      notice, this list of conditions and the following disclaimer in the
  16:Drivers/CMSIS/Include/cmsis_gcc.h ****      documentation and/or other materials provided with the distribution.
  17:Drivers/CMSIS/Include/cmsis_gcc.h ****    - Neither the name of ARM nor the names of its contributors may be used
  18:Drivers/CMSIS/Include/cmsis_gcc.h ****      to endorse or promote products derived from this software without
  19:Drivers/CMSIS/Include/cmsis_gcc.h ****      specific prior written permission.
  20:Drivers/CMSIS/Include/cmsis_gcc.h ****    *
  21:Drivers/CMSIS/Include/cmsis_gcc.h ****    THIS SOFTWARE IS PROVIDED BY THE COPYRIGHT HOLDERS AND CONTRIBUTORS "AS IS"
  22:Drivers/CMSIS/Include/cmsis_gcc.h ****    AND ANY EXPRESS OR IMPLIED WARRANTIES, INCLUDING, BUT NOT LIMITED TO, THE
  23:Drivers/CMSIS/Include/cmsis_gcc.h ****    IMPLIED WARRANTIES OF MERCHANTABILITY AND FITNESS FOR A PARTICULAR PURPOSE
  24:Drivers/CMSIS/Include/cmsis_gcc.h ****    ARE DISCLAIMED. IN NO EVENT SHALL COPYRIGHT HOLDERS AND CONTRIBUTORS BE
  25:Drivers/CMSIS/Include/cmsis_gcc.h ****    LIABLE FOR ANY DIRECT, INDIRECT, INCIDENTAL, SPECIAL, EXEMPLARY, OR
  26:Drivers/CMSIS/Include/cmsis_gcc.h ****    CONSEQUENTIAL DAMAGES (INCLUDING, BUT NOT LIMITED TO, PROCUREMENT OF
  27:Drivers/CMSIS/Include/cmsis_gcc.h ****    SUBSTITUTE GOODS OR SERVICES; LOSS OF USE, DATA, OR PROFITS; OR BUSINESS
  28:Drivers/CMSIS/Include/cmsis_gcc.h ****    INTERRUPTION) HOWEVER CAUSED AND ON ANY THEORY OF LIABILITY, WHETHER IN
  29:Drivers/CMSIS/Include/cmsis_gcc.h ****    CONTRACT, STRICT LIABILITY, OR TORT (INCLUDING NEGLIGENCE OR OTHERWISE)
ARM GAS  C:\Users\behun\AppData\Local\Temp\cc05xKvk.s 			page 9


  30:Drivers/CMSIS/Include/cmsis_gcc.h ****    ARISING IN ANY WAY OUT OF THE USE OF THIS SOFTWARE, EVEN IF ADVISED OF THE
  31:Drivers/CMSIS/Include/cmsis_gcc.h ****    POSSIBILITY OF SUCH DAMAGE.
  32:Drivers/CMSIS/Include/cmsis_gcc.h ****    ---------------------------------------------------------------------------*/
  33:Drivers/CMSIS/Include/cmsis_gcc.h **** 
  34:Drivers/CMSIS/Include/cmsis_gcc.h **** 
  35:Drivers/CMSIS/Include/cmsis_gcc.h **** #ifndef __CMSIS_GCC_H
  36:Drivers/CMSIS/Include/cmsis_gcc.h **** #define __CMSIS_GCC_H
  37:Drivers/CMSIS/Include/cmsis_gcc.h **** 
  38:Drivers/CMSIS/Include/cmsis_gcc.h **** /* ignore some GCC warnings */
  39:Drivers/CMSIS/Include/cmsis_gcc.h **** #if defined ( __GNUC__ )
  40:Drivers/CMSIS/Include/cmsis_gcc.h **** #pragma GCC diagnostic push
  41:Drivers/CMSIS/Include/cmsis_gcc.h **** #pragma GCC diagnostic ignored "-Wsign-conversion"
  42:Drivers/CMSIS/Include/cmsis_gcc.h **** #pragma GCC diagnostic ignored "-Wconversion"
  43:Drivers/CMSIS/Include/cmsis_gcc.h **** #pragma GCC diagnostic ignored "-Wunused-parameter"
  44:Drivers/CMSIS/Include/cmsis_gcc.h **** #endif
  45:Drivers/CMSIS/Include/cmsis_gcc.h **** 
  46:Drivers/CMSIS/Include/cmsis_gcc.h **** 
  47:Drivers/CMSIS/Include/cmsis_gcc.h **** /* ###########################  Core Function Access  ########################### */
  48:Drivers/CMSIS/Include/cmsis_gcc.h **** /** \ingroup  CMSIS_Core_FunctionInterface
  49:Drivers/CMSIS/Include/cmsis_gcc.h ****     \defgroup CMSIS_Core_RegAccFunctions CMSIS Core Register Access Functions
  50:Drivers/CMSIS/Include/cmsis_gcc.h ****   @{
  51:Drivers/CMSIS/Include/cmsis_gcc.h ****  */
  52:Drivers/CMSIS/Include/cmsis_gcc.h **** 
  53:Drivers/CMSIS/Include/cmsis_gcc.h **** /**
  54:Drivers/CMSIS/Include/cmsis_gcc.h ****   \brief   Enable IRQ Interrupts
  55:Drivers/CMSIS/Include/cmsis_gcc.h ****   \details Enables IRQ interrupts by clearing the I-bit in the CPSR.
  56:Drivers/CMSIS/Include/cmsis_gcc.h ****            Can only be executed in Privileged modes.
  57:Drivers/CMSIS/Include/cmsis_gcc.h ****  */
  58:Drivers/CMSIS/Include/cmsis_gcc.h **** __attribute__( ( always_inline ) ) __STATIC_INLINE void __enable_irq(void)
  59:Drivers/CMSIS/Include/cmsis_gcc.h **** {
  60:Drivers/CMSIS/Include/cmsis_gcc.h ****   __ASM volatile ("cpsie i" : : : "memory");
  61:Drivers/CMSIS/Include/cmsis_gcc.h **** }
  62:Drivers/CMSIS/Include/cmsis_gcc.h **** 
  63:Drivers/CMSIS/Include/cmsis_gcc.h **** 
  64:Drivers/CMSIS/Include/cmsis_gcc.h **** /**
  65:Drivers/CMSIS/Include/cmsis_gcc.h ****   \brief   Disable IRQ Interrupts
  66:Drivers/CMSIS/Include/cmsis_gcc.h ****   \details Disables IRQ interrupts by setting the I-bit in the CPSR.
  67:Drivers/CMSIS/Include/cmsis_gcc.h ****   Can only be executed in Privileged modes.
  68:Drivers/CMSIS/Include/cmsis_gcc.h ****  */
  69:Drivers/CMSIS/Include/cmsis_gcc.h **** __attribute__( ( always_inline ) ) __STATIC_INLINE void __disable_irq(void)
  70:Drivers/CMSIS/Include/cmsis_gcc.h **** {
  71:Drivers/CMSIS/Include/cmsis_gcc.h ****   __ASM volatile ("cpsid i" : : : "memory");
  72:Drivers/CMSIS/Include/cmsis_gcc.h **** }
  73:Drivers/CMSIS/Include/cmsis_gcc.h **** 
  74:Drivers/CMSIS/Include/cmsis_gcc.h **** 
  75:Drivers/CMSIS/Include/cmsis_gcc.h **** /**
  76:Drivers/CMSIS/Include/cmsis_gcc.h ****   \brief   Get Control Register
  77:Drivers/CMSIS/Include/cmsis_gcc.h ****   \details Returns the content of the Control Register.
  78:Drivers/CMSIS/Include/cmsis_gcc.h ****   \return               Control Register value
  79:Drivers/CMSIS/Include/cmsis_gcc.h ****  */
  80:Drivers/CMSIS/Include/cmsis_gcc.h **** __attribute__( ( always_inline ) ) __STATIC_INLINE uint32_t __get_CONTROL(void)
  81:Drivers/CMSIS/Include/cmsis_gcc.h **** {
  82:Drivers/CMSIS/Include/cmsis_gcc.h ****   uint32_t result;
  83:Drivers/CMSIS/Include/cmsis_gcc.h **** 
  84:Drivers/CMSIS/Include/cmsis_gcc.h ****   __ASM volatile ("MRS %0, control" : "=r" (result) );
  85:Drivers/CMSIS/Include/cmsis_gcc.h ****   return(result);
  86:Drivers/CMSIS/Include/cmsis_gcc.h **** }
ARM GAS  C:\Users\behun\AppData\Local\Temp\cc05xKvk.s 			page 10


  87:Drivers/CMSIS/Include/cmsis_gcc.h **** 
  88:Drivers/CMSIS/Include/cmsis_gcc.h **** 
  89:Drivers/CMSIS/Include/cmsis_gcc.h **** /**
  90:Drivers/CMSIS/Include/cmsis_gcc.h ****   \brief   Set Control Register
  91:Drivers/CMSIS/Include/cmsis_gcc.h ****   \details Writes the given value to the Control Register.
  92:Drivers/CMSIS/Include/cmsis_gcc.h ****   \param [in]    control  Control Register value to set
  93:Drivers/CMSIS/Include/cmsis_gcc.h ****  */
  94:Drivers/CMSIS/Include/cmsis_gcc.h **** __attribute__( ( always_inline ) ) __STATIC_INLINE void __set_CONTROL(uint32_t control)
  95:Drivers/CMSIS/Include/cmsis_gcc.h **** {
  96:Drivers/CMSIS/Include/cmsis_gcc.h ****   __ASM volatile ("MSR control, %0" : : "r" (control) : "memory");
  97:Drivers/CMSIS/Include/cmsis_gcc.h **** }
  98:Drivers/CMSIS/Include/cmsis_gcc.h **** 
  99:Drivers/CMSIS/Include/cmsis_gcc.h **** 
 100:Drivers/CMSIS/Include/cmsis_gcc.h **** /**
 101:Drivers/CMSIS/Include/cmsis_gcc.h ****   \brief   Get IPSR Register
 102:Drivers/CMSIS/Include/cmsis_gcc.h ****   \details Returns the content of the IPSR Register.
 103:Drivers/CMSIS/Include/cmsis_gcc.h ****   \return               IPSR Register value
 104:Drivers/CMSIS/Include/cmsis_gcc.h ****  */
 105:Drivers/CMSIS/Include/cmsis_gcc.h **** __attribute__( ( always_inline ) ) __STATIC_INLINE uint32_t __get_IPSR(void)
 106:Drivers/CMSIS/Include/cmsis_gcc.h **** {
 107:Drivers/CMSIS/Include/cmsis_gcc.h ****   uint32_t result;
 108:Drivers/CMSIS/Include/cmsis_gcc.h **** 
 109:Drivers/CMSIS/Include/cmsis_gcc.h ****   __ASM volatile ("MRS %0, ipsr" : "=r" (result) );
 110:Drivers/CMSIS/Include/cmsis_gcc.h ****   return(result);
 111:Drivers/CMSIS/Include/cmsis_gcc.h **** }
 112:Drivers/CMSIS/Include/cmsis_gcc.h **** 
 113:Drivers/CMSIS/Include/cmsis_gcc.h **** 
 114:Drivers/CMSIS/Include/cmsis_gcc.h **** /**
 115:Drivers/CMSIS/Include/cmsis_gcc.h ****   \brief   Get APSR Register
 116:Drivers/CMSIS/Include/cmsis_gcc.h ****   \details Returns the content of the APSR Register.
 117:Drivers/CMSIS/Include/cmsis_gcc.h ****   \return               APSR Register value
 118:Drivers/CMSIS/Include/cmsis_gcc.h ****  */
 119:Drivers/CMSIS/Include/cmsis_gcc.h **** __attribute__( ( always_inline ) ) __STATIC_INLINE uint32_t __get_APSR(void)
 120:Drivers/CMSIS/Include/cmsis_gcc.h **** {
 121:Drivers/CMSIS/Include/cmsis_gcc.h ****   uint32_t result;
 122:Drivers/CMSIS/Include/cmsis_gcc.h **** 
 123:Drivers/CMSIS/Include/cmsis_gcc.h ****   __ASM volatile ("MRS %0, apsr" : "=r" (result) );
 124:Drivers/CMSIS/Include/cmsis_gcc.h ****   return(result);
 125:Drivers/CMSIS/Include/cmsis_gcc.h **** }
 126:Drivers/CMSIS/Include/cmsis_gcc.h **** 
 127:Drivers/CMSIS/Include/cmsis_gcc.h **** 
 128:Drivers/CMSIS/Include/cmsis_gcc.h **** /**
 129:Drivers/CMSIS/Include/cmsis_gcc.h ****   \brief   Get xPSR Register
 130:Drivers/CMSIS/Include/cmsis_gcc.h ****   \details Returns the content of the xPSR Register.
 131:Drivers/CMSIS/Include/cmsis_gcc.h **** 
 132:Drivers/CMSIS/Include/cmsis_gcc.h ****     \return               xPSR Register value
 133:Drivers/CMSIS/Include/cmsis_gcc.h ****  */
 134:Drivers/CMSIS/Include/cmsis_gcc.h **** __attribute__( ( always_inline ) ) __STATIC_INLINE uint32_t __get_xPSR(void)
 135:Drivers/CMSIS/Include/cmsis_gcc.h **** {
 136:Drivers/CMSIS/Include/cmsis_gcc.h ****   uint32_t result;
 137:Drivers/CMSIS/Include/cmsis_gcc.h **** 
 138:Drivers/CMSIS/Include/cmsis_gcc.h ****   __ASM volatile ("MRS %0, xpsr" : "=r" (result) );
 139:Drivers/CMSIS/Include/cmsis_gcc.h ****   return(result);
 140:Drivers/CMSIS/Include/cmsis_gcc.h **** }
 141:Drivers/CMSIS/Include/cmsis_gcc.h **** 
 142:Drivers/CMSIS/Include/cmsis_gcc.h **** 
 143:Drivers/CMSIS/Include/cmsis_gcc.h **** /**
ARM GAS  C:\Users\behun\AppData\Local\Temp\cc05xKvk.s 			page 11


 144:Drivers/CMSIS/Include/cmsis_gcc.h ****   \brief   Get Process Stack Pointer
 145:Drivers/CMSIS/Include/cmsis_gcc.h ****   \details Returns the current value of the Process Stack Pointer (PSP).
 146:Drivers/CMSIS/Include/cmsis_gcc.h ****   \return               PSP Register value
 147:Drivers/CMSIS/Include/cmsis_gcc.h ****  */
 148:Drivers/CMSIS/Include/cmsis_gcc.h **** __attribute__( ( always_inline ) ) __STATIC_INLINE uint32_t __get_PSP(void)
 149:Drivers/CMSIS/Include/cmsis_gcc.h **** {
 150:Drivers/CMSIS/Include/cmsis_gcc.h ****   register uint32_t result;
 151:Drivers/CMSIS/Include/cmsis_gcc.h **** 
 152:Drivers/CMSIS/Include/cmsis_gcc.h ****   __ASM volatile ("MRS %0, psp\n"  : "=r" (result) );
 153:Drivers/CMSIS/Include/cmsis_gcc.h ****   return(result);
 154:Drivers/CMSIS/Include/cmsis_gcc.h **** }
 155:Drivers/CMSIS/Include/cmsis_gcc.h **** 
 156:Drivers/CMSIS/Include/cmsis_gcc.h **** 
 157:Drivers/CMSIS/Include/cmsis_gcc.h **** /**
 158:Drivers/CMSIS/Include/cmsis_gcc.h ****   \brief   Set Process Stack Pointer
 159:Drivers/CMSIS/Include/cmsis_gcc.h ****   \details Assigns the given value to the Process Stack Pointer (PSP).
 160:Drivers/CMSIS/Include/cmsis_gcc.h ****   \param [in]    topOfProcStack  Process Stack Pointer value to set
 161:Drivers/CMSIS/Include/cmsis_gcc.h ****  */
 162:Drivers/CMSIS/Include/cmsis_gcc.h **** __attribute__( ( always_inline ) ) __STATIC_INLINE void __set_PSP(uint32_t topOfProcStack)
 163:Drivers/CMSIS/Include/cmsis_gcc.h **** {
 164:Drivers/CMSIS/Include/cmsis_gcc.h ****   __ASM volatile ("MSR psp, %0\n" : : "r" (topOfProcStack) : "sp");
 165:Drivers/CMSIS/Include/cmsis_gcc.h **** }
 166:Drivers/CMSIS/Include/cmsis_gcc.h **** 
 167:Drivers/CMSIS/Include/cmsis_gcc.h **** 
 168:Drivers/CMSIS/Include/cmsis_gcc.h **** /**
 169:Drivers/CMSIS/Include/cmsis_gcc.h ****   \brief   Get Main Stack Pointer
 170:Drivers/CMSIS/Include/cmsis_gcc.h ****   \details Returns the current value of the Main Stack Pointer (MSP).
 171:Drivers/CMSIS/Include/cmsis_gcc.h ****   \return               MSP Register value
 172:Drivers/CMSIS/Include/cmsis_gcc.h ****  */
 173:Drivers/CMSIS/Include/cmsis_gcc.h **** __attribute__( ( always_inline ) ) __STATIC_INLINE uint32_t __get_MSP(void)
 174:Drivers/CMSIS/Include/cmsis_gcc.h **** {
 175:Drivers/CMSIS/Include/cmsis_gcc.h ****   register uint32_t result;
 176:Drivers/CMSIS/Include/cmsis_gcc.h **** 
 177:Drivers/CMSIS/Include/cmsis_gcc.h ****   __ASM volatile ("MRS %0, msp\n" : "=r" (result) );
 178:Drivers/CMSIS/Include/cmsis_gcc.h ****   return(result);
 179:Drivers/CMSIS/Include/cmsis_gcc.h **** }
 180:Drivers/CMSIS/Include/cmsis_gcc.h **** 
 181:Drivers/CMSIS/Include/cmsis_gcc.h **** 
 182:Drivers/CMSIS/Include/cmsis_gcc.h **** /**
 183:Drivers/CMSIS/Include/cmsis_gcc.h ****   \brief   Set Main Stack Pointer
 184:Drivers/CMSIS/Include/cmsis_gcc.h ****   \details Assigns the given value to the Main Stack Pointer (MSP).
 185:Drivers/CMSIS/Include/cmsis_gcc.h **** 
 186:Drivers/CMSIS/Include/cmsis_gcc.h ****     \param [in]    topOfMainStack  Main Stack Pointer value to set
 187:Drivers/CMSIS/Include/cmsis_gcc.h ****  */
 188:Drivers/CMSIS/Include/cmsis_gcc.h **** __attribute__( ( always_inline ) ) __STATIC_INLINE void __set_MSP(uint32_t topOfMainStack)
 189:Drivers/CMSIS/Include/cmsis_gcc.h **** {
 190:Drivers/CMSIS/Include/cmsis_gcc.h ****   __ASM volatile ("MSR msp, %0\n" : : "r" (topOfMainStack) : "sp");
 191:Drivers/CMSIS/Include/cmsis_gcc.h **** }
 192:Drivers/CMSIS/Include/cmsis_gcc.h **** 
 193:Drivers/CMSIS/Include/cmsis_gcc.h **** 
 194:Drivers/CMSIS/Include/cmsis_gcc.h **** /**
 195:Drivers/CMSIS/Include/cmsis_gcc.h ****   \brief   Get Priority Mask
 196:Drivers/CMSIS/Include/cmsis_gcc.h ****   \details Returns the current state of the priority mask bit from the Priority Mask Register.
 197:Drivers/CMSIS/Include/cmsis_gcc.h ****   \return               Priority Mask value
 198:Drivers/CMSIS/Include/cmsis_gcc.h ****  */
 199:Drivers/CMSIS/Include/cmsis_gcc.h **** __attribute__( ( always_inline ) ) __STATIC_INLINE uint32_t __get_PRIMASK(void)
 200:Drivers/CMSIS/Include/cmsis_gcc.h **** {
ARM GAS  C:\Users\behun\AppData\Local\Temp\cc05xKvk.s 			page 12


 201:Drivers/CMSIS/Include/cmsis_gcc.h ****   uint32_t result;
 202:Drivers/CMSIS/Include/cmsis_gcc.h **** 
 203:Drivers/CMSIS/Include/cmsis_gcc.h ****   __ASM volatile ("MRS %0, primask" : "=r" (result) );
 204:Drivers/CMSIS/Include/cmsis_gcc.h ****   return(result);
 205:Drivers/CMSIS/Include/cmsis_gcc.h **** }
 206:Drivers/CMSIS/Include/cmsis_gcc.h **** 
 207:Drivers/CMSIS/Include/cmsis_gcc.h **** 
 208:Drivers/CMSIS/Include/cmsis_gcc.h **** /**
 209:Drivers/CMSIS/Include/cmsis_gcc.h ****   \brief   Set Priority Mask
 210:Drivers/CMSIS/Include/cmsis_gcc.h ****   \details Assigns the given value to the Priority Mask Register.
 211:Drivers/CMSIS/Include/cmsis_gcc.h ****   \param [in]    priMask  Priority Mask
 212:Drivers/CMSIS/Include/cmsis_gcc.h ****  */
 213:Drivers/CMSIS/Include/cmsis_gcc.h **** __attribute__( ( always_inline ) ) __STATIC_INLINE void __set_PRIMASK(uint32_t priMask)
 214:Drivers/CMSIS/Include/cmsis_gcc.h **** {
 215:Drivers/CMSIS/Include/cmsis_gcc.h ****   __ASM volatile ("MSR primask, %0" : : "r" (priMask) : "memory");
 216:Drivers/CMSIS/Include/cmsis_gcc.h **** }
 217:Drivers/CMSIS/Include/cmsis_gcc.h **** 
 218:Drivers/CMSIS/Include/cmsis_gcc.h **** 
 219:Drivers/CMSIS/Include/cmsis_gcc.h **** #if       (__CORTEX_M >= 0x03U)
 220:Drivers/CMSIS/Include/cmsis_gcc.h **** 
 221:Drivers/CMSIS/Include/cmsis_gcc.h **** /**
 222:Drivers/CMSIS/Include/cmsis_gcc.h ****   \brief   Enable FIQ
 223:Drivers/CMSIS/Include/cmsis_gcc.h ****   \details Enables FIQ interrupts by clearing the F-bit in the CPSR.
 224:Drivers/CMSIS/Include/cmsis_gcc.h ****            Can only be executed in Privileged modes.
 225:Drivers/CMSIS/Include/cmsis_gcc.h ****  */
 226:Drivers/CMSIS/Include/cmsis_gcc.h **** __attribute__( ( always_inline ) ) __STATIC_INLINE void __enable_fault_irq(void)
 227:Drivers/CMSIS/Include/cmsis_gcc.h **** {
 228:Drivers/CMSIS/Include/cmsis_gcc.h ****   __ASM volatile ("cpsie f" : : : "memory");
 229:Drivers/CMSIS/Include/cmsis_gcc.h **** }
 230:Drivers/CMSIS/Include/cmsis_gcc.h **** 
 231:Drivers/CMSIS/Include/cmsis_gcc.h **** 
 232:Drivers/CMSIS/Include/cmsis_gcc.h **** /**
 233:Drivers/CMSIS/Include/cmsis_gcc.h ****   \brief   Disable FIQ
 234:Drivers/CMSIS/Include/cmsis_gcc.h ****   \details Disables FIQ interrupts by setting the F-bit in the CPSR.
 235:Drivers/CMSIS/Include/cmsis_gcc.h ****            Can only be executed in Privileged modes.
 236:Drivers/CMSIS/Include/cmsis_gcc.h ****  */
 237:Drivers/CMSIS/Include/cmsis_gcc.h **** __attribute__( ( always_inline ) ) __STATIC_INLINE void __disable_fault_irq(void)
 238:Drivers/CMSIS/Include/cmsis_gcc.h **** {
 239:Drivers/CMSIS/Include/cmsis_gcc.h ****   __ASM volatile ("cpsid f" : : : "memory");
 240:Drivers/CMSIS/Include/cmsis_gcc.h **** }
 241:Drivers/CMSIS/Include/cmsis_gcc.h **** 
 242:Drivers/CMSIS/Include/cmsis_gcc.h **** 
 243:Drivers/CMSIS/Include/cmsis_gcc.h **** /**
 244:Drivers/CMSIS/Include/cmsis_gcc.h ****   \brief   Get Base Priority
 245:Drivers/CMSIS/Include/cmsis_gcc.h ****   \details Returns the current value of the Base Priority register.
 246:Drivers/CMSIS/Include/cmsis_gcc.h ****   \return               Base Priority register value
 247:Drivers/CMSIS/Include/cmsis_gcc.h ****  */
 248:Drivers/CMSIS/Include/cmsis_gcc.h **** __attribute__( ( always_inline ) ) __STATIC_INLINE uint32_t __get_BASEPRI(void)
 249:Drivers/CMSIS/Include/cmsis_gcc.h **** {
 250:Drivers/CMSIS/Include/cmsis_gcc.h ****   uint32_t result;
 251:Drivers/CMSIS/Include/cmsis_gcc.h **** 
 252:Drivers/CMSIS/Include/cmsis_gcc.h ****   __ASM volatile ("MRS %0, basepri" : "=r" (result) );
 253:Drivers/CMSIS/Include/cmsis_gcc.h ****   return(result);
 254:Drivers/CMSIS/Include/cmsis_gcc.h **** }
 255:Drivers/CMSIS/Include/cmsis_gcc.h **** 
 256:Drivers/CMSIS/Include/cmsis_gcc.h **** 
 257:Drivers/CMSIS/Include/cmsis_gcc.h **** /**
ARM GAS  C:\Users\behun\AppData\Local\Temp\cc05xKvk.s 			page 13


 258:Drivers/CMSIS/Include/cmsis_gcc.h ****   \brief   Set Base Priority
 259:Drivers/CMSIS/Include/cmsis_gcc.h ****   \details Assigns the given value to the Base Priority register.
 260:Drivers/CMSIS/Include/cmsis_gcc.h ****   \param [in]    basePri  Base Priority value to set
 261:Drivers/CMSIS/Include/cmsis_gcc.h ****  */
 262:Drivers/CMSIS/Include/cmsis_gcc.h **** __attribute__( ( always_inline ) ) __STATIC_INLINE void __set_BASEPRI(uint32_t value)
 263:Drivers/CMSIS/Include/cmsis_gcc.h **** {
 264:Drivers/CMSIS/Include/cmsis_gcc.h ****   __ASM volatile ("MSR basepri, %0" : : "r" (value) : "memory");
 265:Drivers/CMSIS/Include/cmsis_gcc.h **** }
 266:Drivers/CMSIS/Include/cmsis_gcc.h **** 
 267:Drivers/CMSIS/Include/cmsis_gcc.h **** 
 268:Drivers/CMSIS/Include/cmsis_gcc.h **** /**
 269:Drivers/CMSIS/Include/cmsis_gcc.h ****   \brief   Set Base Priority with condition
 270:Drivers/CMSIS/Include/cmsis_gcc.h ****   \details Assigns the given value to the Base Priority register only if BASEPRI masking is disable
 271:Drivers/CMSIS/Include/cmsis_gcc.h ****            or the new value increases the BASEPRI priority level.
 272:Drivers/CMSIS/Include/cmsis_gcc.h ****   \param [in]    basePri  Base Priority value to set
 273:Drivers/CMSIS/Include/cmsis_gcc.h ****  */
 274:Drivers/CMSIS/Include/cmsis_gcc.h **** __attribute__( ( always_inline ) ) __STATIC_INLINE void __set_BASEPRI_MAX(uint32_t value)
 275:Drivers/CMSIS/Include/cmsis_gcc.h **** {
 276:Drivers/CMSIS/Include/cmsis_gcc.h ****   __ASM volatile ("MSR basepri_max, %0" : : "r" (value) : "memory");
 277:Drivers/CMSIS/Include/cmsis_gcc.h **** }
 278:Drivers/CMSIS/Include/cmsis_gcc.h **** 
 279:Drivers/CMSIS/Include/cmsis_gcc.h **** 
 280:Drivers/CMSIS/Include/cmsis_gcc.h **** /**
 281:Drivers/CMSIS/Include/cmsis_gcc.h ****   \brief   Get Fault Mask
 282:Drivers/CMSIS/Include/cmsis_gcc.h ****   \details Returns the current value of the Fault Mask register.
 283:Drivers/CMSIS/Include/cmsis_gcc.h ****   \return               Fault Mask register value
 284:Drivers/CMSIS/Include/cmsis_gcc.h ****  */
 285:Drivers/CMSIS/Include/cmsis_gcc.h **** __attribute__( ( always_inline ) ) __STATIC_INLINE uint32_t __get_FAULTMASK(void)
 286:Drivers/CMSIS/Include/cmsis_gcc.h **** {
 287:Drivers/CMSIS/Include/cmsis_gcc.h ****   uint32_t result;
 288:Drivers/CMSIS/Include/cmsis_gcc.h **** 
 289:Drivers/CMSIS/Include/cmsis_gcc.h ****   __ASM volatile ("MRS %0, faultmask" : "=r" (result) );
 290:Drivers/CMSIS/Include/cmsis_gcc.h ****   return(result);
 291:Drivers/CMSIS/Include/cmsis_gcc.h **** }
 292:Drivers/CMSIS/Include/cmsis_gcc.h **** 
 293:Drivers/CMSIS/Include/cmsis_gcc.h **** 
 294:Drivers/CMSIS/Include/cmsis_gcc.h **** /**
 295:Drivers/CMSIS/Include/cmsis_gcc.h ****   \brief   Set Fault Mask
 296:Drivers/CMSIS/Include/cmsis_gcc.h ****   \details Assigns the given value to the Fault Mask register.
 297:Drivers/CMSIS/Include/cmsis_gcc.h ****   \param [in]    faultMask  Fault Mask value to set
 298:Drivers/CMSIS/Include/cmsis_gcc.h ****  */
 299:Drivers/CMSIS/Include/cmsis_gcc.h **** __attribute__( ( always_inline ) ) __STATIC_INLINE void __set_FAULTMASK(uint32_t faultMask)
 300:Drivers/CMSIS/Include/cmsis_gcc.h **** {
 301:Drivers/CMSIS/Include/cmsis_gcc.h ****   __ASM volatile ("MSR faultmask, %0" : : "r" (faultMask) : "memory");
 302:Drivers/CMSIS/Include/cmsis_gcc.h **** }
 303:Drivers/CMSIS/Include/cmsis_gcc.h **** 
 304:Drivers/CMSIS/Include/cmsis_gcc.h **** #endif /* (__CORTEX_M >= 0x03U) */
 305:Drivers/CMSIS/Include/cmsis_gcc.h **** 
 306:Drivers/CMSIS/Include/cmsis_gcc.h **** 
 307:Drivers/CMSIS/Include/cmsis_gcc.h **** #if       (__CORTEX_M == 0x04U) || (__CORTEX_M == 0x07U)
 308:Drivers/CMSIS/Include/cmsis_gcc.h **** 
 309:Drivers/CMSIS/Include/cmsis_gcc.h **** /**
 310:Drivers/CMSIS/Include/cmsis_gcc.h ****   \brief   Get FPSCR
 311:Drivers/CMSIS/Include/cmsis_gcc.h ****   \details Returns the current value of the Floating Point Status/Control register.
 312:Drivers/CMSIS/Include/cmsis_gcc.h ****   \return               Floating Point Status/Control register value
 313:Drivers/CMSIS/Include/cmsis_gcc.h ****  */
 314:Drivers/CMSIS/Include/cmsis_gcc.h **** __attribute__( ( always_inline ) ) __STATIC_INLINE uint32_t __get_FPSCR(void)
ARM GAS  C:\Users\behun\AppData\Local\Temp\cc05xKvk.s 			page 14


 315:Drivers/CMSIS/Include/cmsis_gcc.h **** {
 316:Drivers/CMSIS/Include/cmsis_gcc.h **** #if (__FPU_PRESENT == 1U) && (__FPU_USED == 1U)
 317:Drivers/CMSIS/Include/cmsis_gcc.h ****   uint32_t result;
 318:Drivers/CMSIS/Include/cmsis_gcc.h **** 
 319:Drivers/CMSIS/Include/cmsis_gcc.h ****   /* Empty asm statement works as a scheduling barrier */
 320:Drivers/CMSIS/Include/cmsis_gcc.h ****   __ASM volatile ("");
 321:Drivers/CMSIS/Include/cmsis_gcc.h ****   __ASM volatile ("VMRS %0, fpscr" : "=r" (result) );
 322:Drivers/CMSIS/Include/cmsis_gcc.h ****   __ASM volatile ("");
 323:Drivers/CMSIS/Include/cmsis_gcc.h ****   return(result);
 324:Drivers/CMSIS/Include/cmsis_gcc.h **** #else
 325:Drivers/CMSIS/Include/cmsis_gcc.h ****    return(0);
 326:Drivers/CMSIS/Include/cmsis_gcc.h **** #endif
 327:Drivers/CMSIS/Include/cmsis_gcc.h **** }
 328:Drivers/CMSIS/Include/cmsis_gcc.h **** 
 329:Drivers/CMSIS/Include/cmsis_gcc.h **** 
 330:Drivers/CMSIS/Include/cmsis_gcc.h **** /**
 331:Drivers/CMSIS/Include/cmsis_gcc.h ****   \brief   Set FPSCR
 332:Drivers/CMSIS/Include/cmsis_gcc.h ****   \details Assigns the given value to the Floating Point Status/Control register.
 333:Drivers/CMSIS/Include/cmsis_gcc.h ****   \param [in]    fpscr  Floating Point Status/Control value to set
 334:Drivers/CMSIS/Include/cmsis_gcc.h ****  */
 335:Drivers/CMSIS/Include/cmsis_gcc.h **** __attribute__( ( always_inline ) ) __STATIC_INLINE void __set_FPSCR(uint32_t fpscr)
 336:Drivers/CMSIS/Include/cmsis_gcc.h **** {
 337:Drivers/CMSIS/Include/cmsis_gcc.h **** #if (__FPU_PRESENT == 1U) && (__FPU_USED == 1U)
 338:Drivers/CMSIS/Include/cmsis_gcc.h ****   /* Empty asm statement works as a scheduling barrier */
 339:Drivers/CMSIS/Include/cmsis_gcc.h ****   __ASM volatile ("");
 340:Drivers/CMSIS/Include/cmsis_gcc.h ****   __ASM volatile ("VMSR fpscr, %0" : : "r" (fpscr) : "vfpcc");
 341:Drivers/CMSIS/Include/cmsis_gcc.h ****   __ASM volatile ("");
 342:Drivers/CMSIS/Include/cmsis_gcc.h **** #endif
 343:Drivers/CMSIS/Include/cmsis_gcc.h **** }
 344:Drivers/CMSIS/Include/cmsis_gcc.h **** 
 345:Drivers/CMSIS/Include/cmsis_gcc.h **** #endif /* (__CORTEX_M == 0x04U) || (__CORTEX_M == 0x07U) */
 346:Drivers/CMSIS/Include/cmsis_gcc.h **** 
 347:Drivers/CMSIS/Include/cmsis_gcc.h **** 
 348:Drivers/CMSIS/Include/cmsis_gcc.h **** 
 349:Drivers/CMSIS/Include/cmsis_gcc.h **** /*@} end of CMSIS_Core_RegAccFunctions */
 350:Drivers/CMSIS/Include/cmsis_gcc.h **** 
 351:Drivers/CMSIS/Include/cmsis_gcc.h **** 
 352:Drivers/CMSIS/Include/cmsis_gcc.h **** /* ##########################  Core Instruction Access  ######################### */
 353:Drivers/CMSIS/Include/cmsis_gcc.h **** /** \defgroup CMSIS_Core_InstructionInterface CMSIS Core Instruction Interface
 354:Drivers/CMSIS/Include/cmsis_gcc.h ****   Access to dedicated instructions
 355:Drivers/CMSIS/Include/cmsis_gcc.h ****   @{
 356:Drivers/CMSIS/Include/cmsis_gcc.h **** */
 357:Drivers/CMSIS/Include/cmsis_gcc.h **** 
 358:Drivers/CMSIS/Include/cmsis_gcc.h **** /* Define macros for porting to both thumb1 and thumb2.
 359:Drivers/CMSIS/Include/cmsis_gcc.h ****  * For thumb1, use low register (r0-r7), specified by constraint "l"
 360:Drivers/CMSIS/Include/cmsis_gcc.h ****  * Otherwise, use general registers, specified by constraint "r" */
 361:Drivers/CMSIS/Include/cmsis_gcc.h **** #if defined (__thumb__) && !defined (__thumb2__)
 362:Drivers/CMSIS/Include/cmsis_gcc.h **** #define __CMSIS_GCC_OUT_REG(r) "=l" (r)
 363:Drivers/CMSIS/Include/cmsis_gcc.h **** #define __CMSIS_GCC_USE_REG(r) "l" (r)
 364:Drivers/CMSIS/Include/cmsis_gcc.h **** #else
 365:Drivers/CMSIS/Include/cmsis_gcc.h **** #define __CMSIS_GCC_OUT_REG(r) "=r" (r)
 366:Drivers/CMSIS/Include/cmsis_gcc.h **** #define __CMSIS_GCC_USE_REG(r) "r" (r)
 367:Drivers/CMSIS/Include/cmsis_gcc.h **** #endif
 368:Drivers/CMSIS/Include/cmsis_gcc.h **** 
 369:Drivers/CMSIS/Include/cmsis_gcc.h **** /**
 370:Drivers/CMSIS/Include/cmsis_gcc.h ****   \brief   No Operation
 371:Drivers/CMSIS/Include/cmsis_gcc.h ****   \details No Operation does nothing. This instruction can be used for code alignment purposes.
ARM GAS  C:\Users\behun\AppData\Local\Temp\cc05xKvk.s 			page 15


 372:Drivers/CMSIS/Include/cmsis_gcc.h ****  */
 373:Drivers/CMSIS/Include/cmsis_gcc.h **** __attribute__((always_inline)) __STATIC_INLINE void __NOP(void)
 140              		.loc 2 373 53 view .LVU26
 141              	.LBB7:
 374:Drivers/CMSIS/Include/cmsis_gcc.h **** {
 375:Drivers/CMSIS/Include/cmsis_gcc.h ****   __ASM volatile ("nop");
 142              		.loc 2 375 3 view .LVU27
 143              		.syntax unified
 144              	@ 375 "Drivers/CMSIS/Include/cmsis_gcc.h" 1
 145 0046 00BF     		nop
 146              	@ 0 "" 2
 147              		.thumb
 148              		.syntax unified
 149              	.LBE7:
 150              	.LBE6:
 275:Src/main.c    **** }
 151              		.loc 1 275 10 is_stmt 0 view .LVU28
 152 0048 0120     		movs	r0, #1
 153 004a E4E7     		b	.L6
 154              	.LVL15:
 155              	.L4:
 268:Src/main.c    ****       //HAL_GPIO_WritePin(SPI1_CS_GPIO_Port, SPI1_CS_Pin, GPIO_PIN_RESET);
 156              		.loc 1 268 7 is_stmt 1 view .LVU29
 157              	.LBB8:
 158              	.LBI8:
 373:Drivers/CMSIS/Include/cmsis_gcc.h **** {
 159              		.loc 2 373 53 view .LVU30
 160              	.LBB9:
 161              		.loc 2 375 3 view .LVU31
 162              		.syntax unified
 163              	@ 375 "Drivers/CMSIS/Include/cmsis_gcc.h" 1
 164 004c 00BF     		nop
 165              	@ 0 "" 2
 166              		.thumb
 167              		.syntax unified
 168              	.LBE9:
 169              	.LBE8:
 270:Src/main.c    ****       break;
 170              		.loc 1 270 7 view .LVU32
 171 004e 0022     		movs	r2, #0
 172              	.LVL16:
 270:Src/main.c    ****       break;
 173              		.loc 1 270 7 is_stmt 0 view .LVU33
 174 0050 1021     		movs	r1, #16
 175              	.LVL17:
 270:Src/main.c    ****       break;
 176              		.loc 1 270 7 view .LVU34
 177 0052 0348     		ldr	r0, .L10+4
 178              	.LVL18:
 270:Src/main.c    ****       break;
 179              		.loc 1 270 7 view .LVU35
 180 0054 FFF7FEFF 		bl	HAL_GPIO_WritePin
 181              	.LVL19:
 271:Src/main.c    ****     default:
 182              		.loc 1 271 7 is_stmt 1 view .LVU36
 275:Src/main.c    **** }
 183              		.loc 1 275 10 is_stmt 0 view .LVU37
ARM GAS  C:\Users\behun\AppData\Local\Temp\cc05xKvk.s 			page 16


 184 0058 0120     		movs	r0, #1
 271:Src/main.c    ****     default:
 185              		.loc 1 271 7 view .LVU38
 186 005a DCE7     		b	.L6
 187              	.L11:
 188              		.align	2
 189              	.L10:
 190 005c 00000000 		.word	hspi1
 191 0060 00080140 		.word	1073809408
 192              		.cfi_endproc
 193              	.LFE69:
 195              		.section	.text.SystemClock_Config,"ax",%progbits
 196              		.align	1
 197              		.global	SystemClock_Config
 198              		.syntax unified
 199              		.thumb
 200              		.thumb_func
 201              		.fpu softvfp
 203              	SystemClock_Config:
 204              	.LFB67:
 112:Src/main.c    ****   RCC_OscInitTypeDef RCC_OscInitStruct = {0};
 205              		.loc 1 112 1 is_stmt 1 view -0
 206              		.cfi_startproc
 207              		@ args = 0, pretend = 0, frame = 88
 208              		@ frame_needed = 0, uses_anonymous_args = 0
 209 0000 30B5     		push	{r4, r5, lr}
 210              	.LCFI4:
 211              		.cfi_def_cfa_offset 12
 212              		.cfi_offset 4, -12
 213              		.cfi_offset 5, -8
 214              		.cfi_offset 14, -4
 215 0002 97B0     		sub	sp, sp, #92
 216              	.LCFI5:
 217              		.cfi_def_cfa_offset 104
 113:Src/main.c    ****   RCC_ClkInitTypeDef RCC_ClkInitStruct = {0};
 218              		.loc 1 113 3 view .LVU40
 113:Src/main.c    ****   RCC_ClkInitTypeDef RCC_ClkInitStruct = {0};
 219              		.loc 1 113 22 is_stmt 0 view .LVU41
 220 0004 0024     		movs	r4, #0
 221 0006 0E94     		str	r4, [sp, #56]
 222 0008 0F94     		str	r4, [sp, #60]
 223 000a 1194     		str	r4, [sp, #68]
 114:Src/main.c    ****   RCC_PeriphCLKInitTypeDef PeriphClkInit = {0};
 224              		.loc 1 114 3 is_stmt 1 view .LVU42
 114:Src/main.c    ****   RCC_PeriphCLKInitTypeDef PeriphClkInit = {0};
 225              		.loc 1 114 22 is_stmt 0 view .LVU43
 226 000c 0794     		str	r4, [sp, #28]
 227 000e 0894     		str	r4, [sp, #32]
 228 0010 0994     		str	r4, [sp, #36]
 229 0012 0A94     		str	r4, [sp, #40]
 230 0014 0B94     		str	r4, [sp, #44]
 115:Src/main.c    **** 
 231              		.loc 1 115 3 is_stmt 1 view .LVU44
 115:Src/main.c    **** 
 232              		.loc 1 115 28 is_stmt 0 view .LVU45
 233 0016 0194     		str	r4, [sp, #4]
 234 0018 0294     		str	r4, [sp, #8]
ARM GAS  C:\Users\behun\AppData\Local\Temp\cc05xKvk.s 			page 17


 235 001a 0394     		str	r4, [sp, #12]
 236 001c 0494     		str	r4, [sp, #16]
 237 001e 0594     		str	r4, [sp, #20]
 238 0020 0694     		str	r4, [sp, #24]
 119:Src/main.c    ****   RCC_OscInitStruct.HSEState = RCC_HSE_ON;
 239              		.loc 1 119 3 is_stmt 1 view .LVU46
 119:Src/main.c    ****   RCC_OscInitStruct.HSEState = RCC_HSE_ON;
 240              		.loc 1 119 36 is_stmt 0 view .LVU47
 241 0022 0923     		movs	r3, #9
 242 0024 0C93     		str	r3, [sp, #48]
 120:Src/main.c    ****   RCC_OscInitStruct.HSEPredivValue = RCC_HSE_PREDIV_DIV1;
 243              		.loc 1 120 3 is_stmt 1 view .LVU48
 120:Src/main.c    ****   RCC_OscInitStruct.HSEPredivValue = RCC_HSE_PREDIV_DIV1;
 244              		.loc 1 120 30 is_stmt 0 view .LVU49
 245 0026 4FF48033 		mov	r3, #65536
 246 002a 0D93     		str	r3, [sp, #52]
 121:Src/main.c    ****   RCC_OscInitStruct.HSIState = RCC_HSI_ON;
 247              		.loc 1 121 3 is_stmt 1 view .LVU50
 122:Src/main.c    ****   RCC_OscInitStruct.LSIState = RCC_LSI_ON;
 248              		.loc 1 122 3 view .LVU51
 122:Src/main.c    ****   RCC_OscInitStruct.LSIState = RCC_LSI_ON;
 249              		.loc 1 122 30 is_stmt 0 view .LVU52
 250 002c 0122     		movs	r2, #1
 251 002e 1092     		str	r2, [sp, #64]
 123:Src/main.c    ****   RCC_OscInitStruct.PLL.PLLState = RCC_PLL_ON;
 252              		.loc 1 123 3 is_stmt 1 view .LVU53
 123:Src/main.c    ****   RCC_OscInitStruct.PLL.PLLState = RCC_PLL_ON;
 253              		.loc 1 123 30 is_stmt 0 view .LVU54
 254 0030 1292     		str	r2, [sp, #72]
 124:Src/main.c    ****   RCC_OscInitStruct.PLL.PLLSource = RCC_PLLSOURCE_HSE;
 255              		.loc 1 124 3 is_stmt 1 view .LVU55
 124:Src/main.c    ****   RCC_OscInitStruct.PLL.PLLSource = RCC_PLLSOURCE_HSE;
 256              		.loc 1 124 34 is_stmt 0 view .LVU56
 257 0032 0225     		movs	r5, #2
 258 0034 1395     		str	r5, [sp, #76]
 125:Src/main.c    ****   RCC_OscInitStruct.PLL.PLLMUL = RCC_PLL_MUL9;
 259              		.loc 1 125 3 is_stmt 1 view .LVU57
 125:Src/main.c    ****   RCC_OscInitStruct.PLL.PLLMUL = RCC_PLL_MUL9;
 260              		.loc 1 125 35 is_stmt 0 view .LVU58
 261 0036 1493     		str	r3, [sp, #80]
 126:Src/main.c    ****   if (HAL_RCC_OscConfig(&RCC_OscInitStruct) != HAL_OK)
 262              		.loc 1 126 3 is_stmt 1 view .LVU59
 126:Src/main.c    ****   if (HAL_RCC_OscConfig(&RCC_OscInitStruct) != HAL_OK)
 263              		.loc 1 126 32 is_stmt 0 view .LVU60
 264 0038 4FF4E013 		mov	r3, #1835008
 265 003c 1593     		str	r3, [sp, #84]
 127:Src/main.c    ****   {
 266              		.loc 1 127 3 is_stmt 1 view .LVU61
 127:Src/main.c    ****   {
 267              		.loc 1 127 7 is_stmt 0 view .LVU62
 268 003e 0CA8     		add	r0, sp, #48
 269 0040 FFF7FEFF 		bl	HAL_RCC_OscConfig
 270              	.LVL20:
 133:Src/main.c    ****                               |RCC_CLOCKTYPE_PCLK1|RCC_CLOCKTYPE_PCLK2;
 271              		.loc 1 133 3 is_stmt 1 view .LVU63
 133:Src/main.c    ****                               |RCC_CLOCKTYPE_PCLK1|RCC_CLOCKTYPE_PCLK2;
 272              		.loc 1 133 31 is_stmt 0 view .LVU64
ARM GAS  C:\Users\behun\AppData\Local\Temp\cc05xKvk.s 			page 18


 273 0044 0F23     		movs	r3, #15
 274 0046 0793     		str	r3, [sp, #28]
 135:Src/main.c    ****   RCC_ClkInitStruct.AHBCLKDivider = RCC_SYSCLK_DIV1;
 275              		.loc 1 135 3 is_stmt 1 view .LVU65
 135:Src/main.c    ****   RCC_ClkInitStruct.AHBCLKDivider = RCC_SYSCLK_DIV1;
 276              		.loc 1 135 34 is_stmt 0 view .LVU66
 277 0048 0895     		str	r5, [sp, #32]
 136:Src/main.c    ****   RCC_ClkInitStruct.APB1CLKDivider = RCC_HCLK_DIV2;
 278              		.loc 1 136 3 is_stmt 1 view .LVU67
 136:Src/main.c    ****   RCC_ClkInitStruct.APB1CLKDivider = RCC_HCLK_DIV2;
 279              		.loc 1 136 35 is_stmt 0 view .LVU68
 280 004a 0994     		str	r4, [sp, #36]
 137:Src/main.c    ****   RCC_ClkInitStruct.APB2CLKDivider = RCC_HCLK_DIV1;
 281              		.loc 1 137 3 is_stmt 1 view .LVU69
 137:Src/main.c    ****   RCC_ClkInitStruct.APB2CLKDivider = RCC_HCLK_DIV1;
 282              		.loc 1 137 36 is_stmt 0 view .LVU70
 283 004c 4FF48063 		mov	r3, #1024
 284 0050 0A93     		str	r3, [sp, #40]
 138:Src/main.c    **** 
 285              		.loc 1 138 3 is_stmt 1 view .LVU71
 138:Src/main.c    **** 
 286              		.loc 1 138 36 is_stmt 0 view .LVU72
 287 0052 0B94     		str	r4, [sp, #44]
 141:Src/main.c    ****   {
 288              		.loc 1 141 3 is_stmt 1 view .LVU73
 141:Src/main.c    ****   {
 289              		.loc 1 141 7 is_stmt 0 view .LVU74
 290 0054 2946     		mov	r1, r5
 291 0056 07A8     		add	r0, sp, #28
 292 0058 FFF7FEFF 		bl	HAL_RCC_ClockConfig
 293              	.LVL21:
 145:Src/main.c    ****   PeriphClkInit.UsbClockSelection = RCC_USBCLKSOURCE_PLL_DIV1_5;
 294              		.loc 1 145 3 is_stmt 1 view .LVU75
 145:Src/main.c    ****   PeriphClkInit.UsbClockSelection = RCC_USBCLKSOURCE_PLL_DIV1_5;
 295              		.loc 1 145 38 is_stmt 0 view .LVU76
 296 005c 1023     		movs	r3, #16
 297 005e 0193     		str	r3, [sp, #4]
 146:Src/main.c    ****   if (HAL_RCCEx_PeriphCLKConfig(&PeriphClkInit) != HAL_OK)
 298              		.loc 1 146 3 is_stmt 1 view .LVU77
 146:Src/main.c    ****   if (HAL_RCCEx_PeriphCLKConfig(&PeriphClkInit) != HAL_OK)
 299              		.loc 1 146 35 is_stmt 0 view .LVU78
 300 0060 0694     		str	r4, [sp, #24]
 147:Src/main.c    ****   {
 301              		.loc 1 147 3 is_stmt 1 view .LVU79
 147:Src/main.c    ****   {
 302              		.loc 1 147 7 is_stmt 0 view .LVU80
 303 0062 01A8     		add	r0, sp, #4
 304 0064 FFF7FEFF 		bl	HAL_RCCEx_PeriphCLKConfig
 305              	.LVL22:
 151:Src/main.c    **** 
 306              		.loc 1 151 1 view .LVU81
 307 0068 17B0     		add	sp, sp, #92
 308              	.LCFI6:
 309              		.cfi_def_cfa_offset 12
 310              		@ sp needed
 311 006a 30BD     		pop	{r4, r5, pc}
 312              		.cfi_endproc
ARM GAS  C:\Users\behun\AppData\Local\Temp\cc05xKvk.s 			page 19


 313              	.LFE67:
 315              		.section	.text.main,"ax",%progbits
 316              		.align	1
 317              		.global	main
 318              		.syntax unified
 319              		.thumb
 320              		.thumb_func
 321              		.fpu softvfp
 323              	main:
 324              	.LFB66:
  56:Src/main.c    ****   HAL_Init();
 325              		.loc 1 56 1 is_stmt 1 view -0
 326              		.cfi_startproc
 327              		@ args = 0, pretend = 0, frame = 0
 328              		@ frame_needed = 0, uses_anonymous_args = 0
 329 0000 10B5     		push	{r4, lr}
 330              	.LCFI7:
 331              		.cfi_def_cfa_offset 8
 332              		.cfi_offset 4, -8
 333              		.cfi_offset 14, -4
  57:Src/main.c    ****   SystemClock_Config();
 334              		.loc 1 57 3 view .LVU83
 335 0002 FFF7FEFF 		bl	HAL_Init
 336              	.LVL23:
  58:Src/main.c    ****   MX_GPIO_Init();
 337              		.loc 1 58 3 view .LVU84
 338 0006 FFF7FEFF 		bl	SystemClock_Config
 339              	.LVL24:
  59:Src/main.c    ****   MX_SPI1_Init();
 340              		.loc 1 59 3 view .LVU85
 341 000a FFF7FEFF 		bl	MX_GPIO_Init
 342              	.LVL25:
  60:Src/main.c    ****   // MX_I2C1_Init();
 343              		.loc 1 60 3 view .LVU86
 344 000e FFF7FEFF 		bl	MX_SPI1_Init
 345              	.LVL26:
  67:Src/main.c    ****   KeyInit();
 346              		.loc 1 67 3 view .LVU87
 347 0012 FFF7FEFF 		bl	MX_USB_DEVICE_Init
 348              	.LVL27:
  68:Src/main.c    ****   u8g2_Setup_st7920_s_128x64_f(&u8g2, U8G2_R0, u8x8_byte_4wire_hw_spi, u8g2_gpio_and_delay_stm32); 
 349              		.loc 1 68 3 view .LVU88
 350 0016 FFF7FEFF 		bl	KeyInit
 351              	.LVL28:
  69:Src/main.c    ****   u8g2_InitDisplay(&u8g2);
 352              		.loc 1 69 3 view .LVU89
 353 001a 1C4C     		ldr	r4, .L19
 354 001c 1C4B     		ldr	r3, .L19+4
 355 001e 1D4A     		ldr	r2, .L19+8
 356 0020 1D49     		ldr	r1, .L19+12
 357 0022 2046     		mov	r0, r4
 358 0024 FFF7FEFF 		bl	u8g2_Setup_st7920_s_128x64_f
 359              	.LVL29:
  70:Src/main.c    ****   u8g2_SetPowerSave(&u8g2, 0); // wake up display
 360              		.loc 1 70 3 view .LVU90
 361 0028 2046     		mov	r0, r4
 362 002a FFF7FEFF 		bl	u8x8_InitDisplay
ARM GAS  C:\Users\behun\AppData\Local\Temp\cc05xKvk.s 			page 20


 363              	.LVL30:
  71:Src/main.c    **** 
 364              		.loc 1 71 3 view .LVU91
 365 002e 0021     		movs	r1, #0
 366 0030 2046     		mov	r0, r4
 367 0032 FFF7FEFF 		bl	u8x8_SetPowerSave
 368              	.LVL31:
  73:Src/main.c    ****   HAL_Delay(10);
 369              		.loc 1 73 3 view .LVU92
 370 0036 194C     		ldr	r4, .L19+16
 371 0038 0022     		movs	r2, #0
 372 003a 4021     		movs	r1, #64
 373 003c 2046     		mov	r0, r4
 374 003e FFF7FEFF 		bl	HAL_GPIO_WritePin
 375              	.LVL32:
  74:Src/main.c    ****   LCD_RST_1;
 376              		.loc 1 74 3 view .LVU93
 377 0042 0A20     		movs	r0, #10
 378 0044 FFF7FEFF 		bl	HAL_Delay
 379              	.LVL33:
  75:Src/main.c    **** 
 380              		.loc 1 75 3 view .LVU94
 381 0048 0122     		movs	r2, #1
 382 004a 4021     		movs	r1, #64
 383 004c 2046     		mov	r0, r4
 384 004e FFF7FEFF 		bl	HAL_GPIO_WritePin
 385              	.LVL34:
  77:Src/main.c    ****   HAL_Delay(3000);
 386              		.loc 1 77 3 view .LVU95
 387 0052 FFF7FEFF 		bl	Logo
 388              	.LVL35:
  78:Src/main.c    ****   main_screen_init();
 389              		.loc 1 78 3 view .LVU96
 390 0056 40F6B830 		movw	r0, #3000
 391 005a FFF7FEFF 		bl	HAL_Delay
 392              	.LVL36:
  79:Src/main.c    ****   Info_Screen_Init();
 393              		.loc 1 79 3 view .LVU97
 394 005e FFF7FEFF 		bl	main_screen_init
 395              	.LVL37:
  80:Src/main.c    ****   uint32_t timeRefesh = HAL_GetTick();
 396              		.loc 1 80 3 view .LVU98
 397 0062 FFF7FEFF 		bl	Info_Screen_Init
 398              	.LVL38:
  81:Src/main.c    ****   // uint8_t timeSend;
 399              		.loc 1 81 3 view .LVU99
  81:Src/main.c    ****   // uint8_t timeSend;
 400              		.loc 1 81 25 is_stmt 0 view .LVU100
 401 0066 FFF7FEFF 		bl	HAL_GetTick
 402              	.LVL39:
 403 006a 0446     		mov	r4, r0
 404              	.LVL40:
  81:Src/main.c    ****   // uint8_t timeSend;
 405              		.loc 1 81 25 view .LVU101
 406 006c 05E0     		b	.L15
 407              	.LVL41:
 408              	.L18:
ARM GAS  C:\Users\behun\AppData\Local\Temp\cc05xKvk.s 			page 21


  97:Src/main.c    ****       timeRefesh = HAL_GetTick();
 409              		.loc 1 97 7 is_stmt 1 view .LVU102
 410 006e 0748     		ldr	r0, .L19
 411 0070 FFF7FEFF 		bl	u8g2_SendBuffer
 412              	.LVL42:
  98:Src/main.c    ****     }
 413              		.loc 1 98 7 view .LVU103
  98:Src/main.c    ****     }
 414              		.loc 1 98 20 is_stmt 0 view .LVU104
 415 0074 FFF7FEFF 		bl	HAL_GetTick
 416              	.LVL43:
 417 0078 0446     		mov	r4, r0
 418              	.LVL44:
 419              	.L15:
  83:Src/main.c    ****   {
 420              		.loc 1 83 3 is_stmt 1 view .LVU105
  89:Src/main.c    ****     // Info_Screen_Manage();
 421              		.loc 1 89 5 view .LVU106
 422 007a FFF7FEFF 		bl	Main_Screen_Manage
 423              	.LVL45:
  95:Src/main.c    ****     {
 424              		.loc 1 95 5 view .LVU107
  95:Src/main.c    ****     {
 425              		.loc 1 95 8 is_stmt 0 view .LVU108
 426 007e FFF7FEFF 		bl	HAL_GetTick
 427              	.LVL46:
  95:Src/main.c    ****     {
 428              		.loc 1 95 22 view .LVU109
 429 0082 001B     		subs	r0, r0, r4
  95:Src/main.c    ****     {
 430              		.loc 1 95 7 view .LVU110
 431 0084 6428     		cmp	r0, #100
 432 0086 F8D9     		bls	.L15
  95:Src/main.c    ****     {
 433              		.loc 1 95 7 view .LVU111
 434 0088 F1E7     		b	.L18
 435              	.L20:
 436 008a 00BF     		.align	2
 437              	.L19:
 438 008c 00000000 		.word	u8g2
 439 0090 00000000 		.word	u8g2_gpio_and_delay_stm32
 440 0094 00000000 		.word	u8x8_byte_4wire_hw_spi
 441 0098 00000000 		.word	u8g2_cb_r0
 442 009c 00080140 		.word	1073809408
 443              		.cfi_endproc
 444              	.LFE66:
 446              		.section	.text.Error_Handler,"ax",%progbits
 447              		.align	1
 448              		.global	Error_Handler
 449              		.syntax unified
 450              		.thumb
 451              		.thumb_func
 452              		.fpu softvfp
 454              	Error_Handler:
 455              	.LFB70:
 277:Src/main.c    **** /**
 278:Src/main.c    ****   * @brief  This function is executed in case of error occurrence.
ARM GAS  C:\Users\behun\AppData\Local\Temp\cc05xKvk.s 			page 22


 279:Src/main.c    ****   * @retval None
 280:Src/main.c    ****   */
 281:Src/main.c    **** void Error_Handler(void)
 282:Src/main.c    **** {
 456              		.loc 1 282 1 is_stmt 1 view -0
 457              		.cfi_startproc
 458              		@ args = 0, pretend = 0, frame = 0
 459              		@ frame_needed = 0, uses_anonymous_args = 0
 460              		@ link register save eliminated.
 283:Src/main.c    ****   /* USER CODE BEGIN Error_Handler_Debug */
 284:Src/main.c    ****   /* User can add his own implementation to report the HAL error return state */
 285:Src/main.c    **** 
 286:Src/main.c    ****   /* USER CODE END Error_Handler_Debug */
 287:Src/main.c    **** }
 461              		.loc 1 287 1 view .LVU113
 462 0000 7047     		bx	lr
 463              		.cfi_endproc
 464              	.LFE70:
 466              		.section	.text._write,"ax",%progbits
 467              		.align	1
 468              		.global	_write
 469              		.syntax unified
 470              		.thumb
 471              		.thumb_func
 472              		.fpu softvfp
 474              	_write:
 475              	.LVL47:
 476              	.LFB71:
 288:Src/main.c    **** 
 289:Src/main.c    **** #ifdef  USE_FULL_ASSERT
 290:Src/main.c    **** /**
 291:Src/main.c    ****   * @brief  Reports the name of the source file and the source line number
 292:Src/main.c    ****   *         where the assert_param error has occurred.
 293:Src/main.c    ****   * @param  file: pointer to the source file name
 294:Src/main.c    ****   * @param  line: assert_param error line source number
 295:Src/main.c    ****   * @retval None
 296:Src/main.c    ****   */
 297:Src/main.c    **** void assert_failed(uint8_t *file, uint32_t line)
 298:Src/main.c    **** { 
 299:Src/main.c    ****   /* USER CODE BEGIN 6 */
 300:Src/main.c    ****   /* User can add his own implementation to report the file name and line number,
 301:Src/main.c    ****      tex: printf("Wrong parameters value: file %s on line %d\r\n", file, line) */
 302:Src/main.c    ****   /* USER CODE END 6 */
 303:Src/main.c    **** }
 304:Src/main.c    **** #endif /* USE_FULL_ASSERT */
 305:Src/main.c    **** 
 306:Src/main.c    **** int _write(int file, char *data, int len)
 307:Src/main.c    **** {
 477              		.loc 1 307 1 view -0
 478              		.cfi_startproc
 479              		@ args = 0, pretend = 0, frame = 0
 480              		@ frame_needed = 0, uses_anonymous_args = 0
 481              		.loc 1 307 1 is_stmt 0 view .LVU115
 482 0000 08B5     		push	{r3, lr}
 483              	.LCFI8:
 484              		.cfi_def_cfa_offset 8
 485              		.cfi_offset 3, -8
ARM GAS  C:\Users\behun\AppData\Local\Temp\cc05xKvk.s 			page 23


 486              		.cfi_offset 14, -4
 308:Src/main.c    ****   if((file != STDOUT_FILENO) && (file != STDERR_FILENO))
 487              		.loc 1 308 3 is_stmt 1 view .LVU116
 488              		.loc 1 308 30 is_stmt 0 view .LVU117
 489 0002 0138     		subs	r0, r0, #1
 490              	.LVL48:
 491              		.loc 1 308 5 view .LVU118
 492 0004 0128     		cmp	r0, #1
 493 0006 06D8     		bhi	.L26
 494 0008 0B46     		mov	r3, r1
 309:Src/main.c    ****   {
 310:Src/main.c    ****     errno = EBADF;
 311:Src/main.c    ****     return -1;
 312:Src/main.c    ****   }
 313:Src/main.c    ****   uint8_t status = CDC_Transmit_FS((uint8_t*)data, len);
 495              		.loc 1 313 3 is_stmt 1 view .LVU119
 496              		.loc 1 313 20 is_stmt 0 view .LVU120
 497 000a 1146     		mov	r1, r2
 498              	.LVL49:
 499              		.loc 1 313 20 view .LVU121
 500 000c 1846     		mov	r0, r3
 501              	.LVL50:
 502              		.loc 1 313 20 view .LVU122
 503 000e FFF7FEFF 		bl	CDC_Transmit_FS
 504              	.LVL51:
 314:Src/main.c    ****   return status; 
 505              		.loc 1 314 3 is_stmt 1 view .LVU123
 506 0012 C0B2     		uxtb	r0, r0
 507              	.LVL52:
 508              	.L22:
 315:Src/main.c    **** }
 509              		.loc 1 315 1 is_stmt 0 view .LVU124
 510 0014 08BD     		pop	{r3, pc}
 511              	.LVL53:
 512              	.L26:
 310:Src/main.c    ****     return -1;
 513              		.loc 1 310 5 is_stmt 1 view .LVU125
 514 0016 FFF7FEFF 		bl	__errno
 515              	.LVL54:
 310:Src/main.c    ****     return -1;
 516              		.loc 1 310 11 is_stmt 0 view .LVU126
 517 001a 0923     		movs	r3, #9
 518 001c 0360     		str	r3, [r0]
 311:Src/main.c    ****   }
 519              		.loc 1 311 5 is_stmt 1 view .LVU127
 311:Src/main.c    ****   }
 520              		.loc 1 311 12 is_stmt 0 view .LVU128
 521 001e 4FF0FF30 		mov	r0, #-1
 522 0022 F7E7     		b	.L22
 523              		.cfi_endproc
 524              	.LFE71:
 526              		.comm	u8g2,128,4
 527              		.text
 528              	.Letext0:
 529              		.file 3 "c:\\program files (x86)\\gnu tools arm embedded\\8 2019-q3-update\\arm-none-eabi\\include
 530              		.file 4 "c:\\program files (x86)\\gnu tools arm embedded\\8 2019-q3-update\\arm-none-eabi\\include
 531              		.file 5 "Drivers/CMSIS/Include/core_cm3.h"
ARM GAS  C:\Users\behun\AppData\Local\Temp\cc05xKvk.s 			page 24


 532              		.file 6 "Drivers/CMSIS/Device/ST/STM32F1xx/Include/system_stm32f1xx.h"
 533              		.file 7 "Drivers/CMSIS/Device/ST/STM32F1xx/Include/stm32f103xe.h"
 534              		.file 8 "c:\\program files (x86)\\gnu tools arm embedded\\8 2019-q3-update\\lib\\gcc\\arm-none-eab
 535              		.file 9 "c:\\program files (x86)\\gnu tools arm embedded\\8 2019-q3-update\\arm-none-eabi\\include
 536              		.file 10 "c:\\program files (x86)\\gnu tools arm embedded\\8 2019-q3-update\\arm-none-eabi\\includ
 537              		.file 11 "c:\\program files (x86)\\gnu tools arm embedded\\8 2019-q3-update\\arm-none-eabi\\includ
 538              		.file 12 "Drivers/STM32F1xx_HAL_Driver/Inc/stm32f1xx_hal_def.h"
 539              		.file 13 "Drivers/STM32F1xx_HAL_Driver/Inc/stm32f1xx_hal_rcc.h"
 540              		.file 14 "Drivers/STM32F1xx_HAL_Driver/Inc/stm32f1xx_hal_rcc_ex.h"
 541              		.file 15 "Drivers/STM32F1xx_HAL_Driver/Inc/stm32f1xx_hal_gpio.h"
 542              		.file 16 "Drivers/STM32F1xx_HAL_Driver/Inc/stm32f1xx_hal_dma.h"
 543              		.file 17 "Drivers/STM32F1xx_HAL_Driver/Inc/stm32f1xx_hal_i2c.h"
 544              		.file 18 "Drivers/STM32F1xx_HAL_Driver/Inc/stm32f1xx_hal_iwdg.h"
 545              		.file 19 "Drivers/STM32F1xx_HAL_Driver/Inc/stm32f1xx_hal_spi.h"
 546              		.file 20 "Drivers/STM32F1xx_HAL_Driver/Inc/stm32f1xx_hal_uart.h"
 547              		.file 21 "Drivers/STM32F1xx_HAL_Driver/Inc/stm32f1xx_hal.h"
 548              		.file 22 "Inc/i2c.h"
 549              		.file 23 "Inc/iwdg.h"
 550              		.file 24 "Inc/usart.h"
 551              		.file 25 "c:\\program files (x86)\\gnu tools arm embedded\\8 2019-q3-update\\arm-none-eabi\\includ
 552              		.file 26 "c:\\program files (x86)\\gnu tools arm embedded\\8 2019-q3-update\\arm-none-eabi\\includ
 553              		.file 27 "c:\\program files (x86)\\gnu tools arm embedded\\8 2019-q3-update\\arm-none-eabi\\includ
 554              		.file 28 "u8g2/csrc/u8x8.h"
 555              		.file 29 "u8g2/csrc/u8g2.h"
 556              		.file 30 "Inc/user_bitmap.h"
 557              		.file 31 "Inc/main_screen.h"
 558              		.file 32 "Inc/info_screen.h"
 559              		.file 33 "Inc/spi.h"
 560              		.file 34 "Inc/usb_device.h"
 561              		.file 35 "Inc/key.h"
ARM GAS  C:\Users\behun\AppData\Local\Temp\cc05xKvk.s 			page 25


DEFINED SYMBOLS
                            *ABS*:00000000 main.c
C:\Users\behun\AppData\Local\Temp\cc05xKvk.s:16     .text.u8g2_gpio_and_delay_stm32:00000000 $t
C:\Users\behun\AppData\Local\Temp\cc05xKvk.s:24     .text.u8g2_gpio_and_delay_stm32:00000000 u8g2_gpio_and_delay_stm32
C:\Users\behun\AppData\Local\Temp\cc05xKvk.s:43     .text.u8x8_byte_4wire_hw_spi:00000000 $t
C:\Users\behun\AppData\Local\Temp\cc05xKvk.s:50     .text.u8x8_byte_4wire_hw_spi:00000000 u8x8_byte_4wire_hw_spi
C:\Users\behun\AppData\Local\Temp\cc05xKvk.s:190    .text.u8x8_byte_4wire_hw_spi:0000005c $d
C:\Users\behun\AppData\Local\Temp\cc05xKvk.s:196    .text.SystemClock_Config:00000000 $t
C:\Users\behun\AppData\Local\Temp\cc05xKvk.s:203    .text.SystemClock_Config:00000000 SystemClock_Config
C:\Users\behun\AppData\Local\Temp\cc05xKvk.s:316    .text.main:00000000 $t
C:\Users\behun\AppData\Local\Temp\cc05xKvk.s:323    .text.main:00000000 main
C:\Users\behun\AppData\Local\Temp\cc05xKvk.s:438    .text.main:0000008c $d
                            *COM*:00000080 u8g2
C:\Users\behun\AppData\Local\Temp\cc05xKvk.s:447    .text.Error_Handler:00000000 $t
C:\Users\behun\AppData\Local\Temp\cc05xKvk.s:454    .text.Error_Handler:00000000 Error_Handler
C:\Users\behun\AppData\Local\Temp\cc05xKvk.s:467    .text._write:00000000 $t
C:\Users\behun\AppData\Local\Temp\cc05xKvk.s:474    .text._write:00000000 _write

UNDEFINED SYMBOLS
HAL_SPI_Transmit
HAL_GPIO_WritePin
hspi1
HAL_RCC_OscConfig
HAL_RCC_ClockConfig
HAL_RCCEx_PeriphCLKConfig
HAL_Init
MX_GPIO_Init
MX_SPI1_Init
MX_USB_DEVICE_Init
KeyInit
u8g2_Setup_st7920_s_128x64_f
u8x8_InitDisplay
u8x8_SetPowerSave
HAL_Delay
Logo
main_screen_init
Info_Screen_Init
HAL_GetTick
u8g2_SendBuffer
Main_Screen_Manage
u8g2_cb_r0
CDC_Transmit_FS
__errno
