ARM GAS  C:\Users\behun\AppData\Local\Temp\ccK2kcBn.s 			page 1


   1              		.cpu cortex-m3
   2              		.eabi_attribute 20, 1
   3              		.eabi_attribute 21, 1
   4              		.eabi_attribute 23, 3
   5              		.eabi_attribute 24, 1
   6              		.eabi_attribute 25, 1
   7              		.eabi_attribute 26, 1
   8              		.eabi_attribute 30, 1
   9              		.eabi_attribute 34, 1
  10              		.eabi_attribute 18, 4
  11              		.file	"main.c"
  12              		.text
  13              	.Ltext0:
  14              		.cfi_sections	.debug_frame
  15              		.section	.text.delay_us,"ax",%progbits
  16              		.align	1
  17              		.arch armv7-m
  18              		.syntax unified
  19              		.thumb
  20              		.thumb_func
  21              		.fpu softvfp
  23              	delay_us:
  24              	.LVL0:
  25              	.LFB71:
  26              		.file 1 "Src/main.c"
   1:Src/main.c    **** /* USER CODE BEGIN Header */
   2:Src/main.c    **** /**
   3:Src/main.c    ****   ******************************************************************************
   4:Src/main.c    ****   * @file           : main.c
   5:Src/main.c    ****   * @brief          : Main program body
   6:Src/main.c    ****   ******************************************************************************
   7:Src/main.c    ****   * @attention
   8:Src/main.c    ****   *
   9:Src/main.c    ****   * <h2><center>&copy; Copyright (c) 2019 STMicroelectronics.
  10:Src/main.c    ****   * All rights reserved.</center></h2>
  11:Src/main.c    ****   *
  12:Src/main.c    ****   * This software component is licensed by ST under Ultimate Liberty license
  13:Src/main.c    ****   * SLA0044, the "License"; You may not use this file except in compliance with
  14:Src/main.c    ****   * the License. You may obtain a copy of the License at:
  15:Src/main.c    ****   *                             www.st.com/SLA0044
  16:Src/main.c    ****   *
  17:Src/main.c    ****   ******************************************************************************
  18:Src/main.c    ****   */
  19:Src/main.c    **** /* USER CODE END Header */
  20:Src/main.c    **** 
  21:Src/main.c    **** /* Includes ------------------------------------------------------------------*/
  22:Src/main.c    **** #include "main.h"
  23:Src/main.c    **** #include "i2c.h"
  24:Src/main.c    **** #include "iwdg.h"
  25:Src/main.c    **** #include "usart.h"
  26:Src/main.c    **** #include "usb_device.h"
  27:Src/main.c    **** #include "gpio.h"
  28:Src/main.c    **** #include <stdlib.h>
  29:Src/main.c    **** #include <string.h>
  30:Src/main.c    **** #include <errno.h>
  31:Src/main.c    **** #include <stdio.h>
  32:Src/main.c    **** #include <unistd.h>
ARM GAS  C:\Users\behun\AppData\Local\Temp\ccK2kcBn.s 			page 2


  33:Src/main.c    **** #include "u8g2.h"
  34:Src/main.c    **** #include "key.h"
  35:Src/main.c    **** #include "logo.h"
  36:Src/main.c    **** #include "userInterface.h"
  37:Src/main.c    **** 
  38:Src/main.c    **** int _write(int file, char *data, int len);
  39:Src/main.c    **** 
  40:Src/main.c    **** #define LCD_RST_1       HAL_GPIO_WritePin(GPIOA, GPIO_PIN_6,  GPIO_PIN_SET)
  41:Src/main.c    **** #define LCD_RST_0       HAL_GPIO_WritePin(GPIOA, GPIO_PIN_6,  GPIO_PIN_RESET)
  42:Src/main.c    **** #define LCD_RS_1        HAL_GPIO_WritePin(GPIOA, GPIO_PIN_4, GPIO_PIN_SET)
  43:Src/main.c    **** #define LCD_RS_0        HAL_GPIO_WritePin(GPIOA, GPIO_PIN_4, GPIO_PIN_RESET)
  44:Src/main.c    **** #define LCD_SCLK_1      HAL_GPIO_WritePin(GPIOA, GPIO_PIN_5, GPIO_PIN_SET)
  45:Src/main.c    **** #define LCD_SCLK_0      HAL_GPIO_WritePin(GPIOA, GPIO_PIN_5, GPIO_PIN_RESET)
  46:Src/main.c    **** #define LCD_SID_1       HAL_GPIO_WritePin(GPIOA, GPIO_PIN_7, GPIO_PIN_SET)
  47:Src/main.c    **** #define LCD_SID_0       HAL_GPIO_WritePin(GPIOA, GPIO_PIN_7, GPIO_PIN_RESET)
  48:Src/main.c    **** 
  49:Src/main.c    **** void SystemClock_Config(void);
  50:Src/main.c    **** uint8_t u8g2_gpio_and_delay_stm32(U8X8_UNUSED u8x8_t *u8x8, U8X8_UNUSED uint8_t msg, U8X8_UNUSED ui
  51:Src/main.c    **** void MX_GPIO_Init(void);
  52:Src/main.c    **** static void delay_us(uint32_t time);
  53:Src/main.c    **** static void delay_ms(uint32_t time);
  54:Src/main.c    **** void Logo(void);
  55:Src/main.c    **** void Interface_Component(void);
  56:Src/main.c    **** u8g2_t u8g2;
  57:Src/main.c    **** int main(void)
  58:Src/main.c    **** {
  59:Src/main.c    ****   HAL_Init();
  60:Src/main.c    ****   SystemClock_Config();
  61:Src/main.c    ****   MX_GPIO_Init();
  62:Src/main.c    ****   // MX_I2C1_Init();
  63:Src/main.c    ****   // MX_I2C2_Init();
  64:Src/main.c    ****   // MX_IWDG_Init();
  65:Src/main.c    ****   // MX_USART1_UART_Init();
  66:Src/main.c    ****   // MX_USART2_UART_Init();
  67:Src/main.c    ****   MX_USB_DEVICE_Init();
  68:Src/main.c    ****   u8g2_Setup_st7920_s_128x64_f(&u8g2, U8G2_R0, u8x8_byte_4wire_sw_spi, u8g2_gpio_and_delay_stm32); 
  69:Src/main.c    ****   u8g2_InitDisplay(&u8g2);
  70:Src/main.c    ****   u8g2_SetPowerSave(&u8g2, 0); // wake up display
  71:Src/main.c    ****   Logo();
  72:Src/main.c    ****   HAL_Delay(5000);
  73:Src/main.c    **** 
  74:Src/main.c    ****   void KeyInit(void);
  75:Src/main.c    ****   void KeyGet(uint8_t port_id);
  76:Src/main.c    ****   BUTTON_ID KeyProcess(void);
  77:Src/main.c    ****   // void KeyManage(void);
  78:Src/main.c    **** 
  79:Src/main.c    ****   uint32_t lastTime = HAL_GetTick();
  80:Src/main.c    ****   uint32_t timeRefesh = HAL_GetTick();
  81:Src/main.c    ****   uint32_t timeSend;
  82:Src/main.c    ****   uint32_t timekey = HAL_GetTick();
  83:Src/main.c    ****   uint8_t lampStatus = 0;
  84:Src/main.c    ****   while (1)
  85:Src/main.c    ****   {
  86:Src/main.c    ****     
  87:Src/main.c    ****     /* timeSend = HAL_GetTick();
  88:Src/main.c    ****     u8g2_SendBuffer(&u8g2);
  89:Src/main.c    ****     printf("Time Send Buff: %d \n", HAL_GetTick() - timeSend);*/
ARM GAS  C:\Users\behun\AppData\Local\Temp\ccK2kcBn.s 			page 3


  90:Src/main.c    ****     if(HAL_GetTick() - timekey > 1)
  91:Src/main.c    ****     {
  92:Src/main.c    ****       switch(KeyProcess())
  93:Src/main.c    ****       {
  94:Src/main.c    ****         case NEON:
  95:Src/main.c    ****           lampStatus = ~lampStatus;
  96:Src/main.c    ****           printf("KEY NEON press\n"); 
  97:Src/main.c    ****           break;
  98:Src/main.c    ****         case UV:
  99:Src/main.c    ****           printf("KEY UV press\n");
 100:Src/main.c    ****           break;
 101:Src/main.c    ****         case FAN:
 102:Src/main.c    ****           printf("KEY FAN press\n");
 103:Src/main.c    ****           break;
 104:Src/main.c    ****         case SOCKET:
 105:Src/main.c    ****           printf("KEY SOCKET press\n"); 
 106:Src/main.c    ****           break;
 107:Src/main.c    ****         default:
 108:Src/main.c    ****           break; 
 109:Src/main.c    ****       }
 110:Src/main.c    ****       timekey = HAL_GetTick();
 111:Src/main.c    ****     }
 112:Src/main.c    ****       Lamp_Status(lampStatus);
 113:Src/main.c    ****     //Interface_Component();
 114:Src/main.c    **** 
 115:Src/main.c    ****     if(HAL_GetTick() - timeRefesh > 100)
 116:Src/main.c    ****     {
 117:Src/main.c    ****       u8g2_SendBuffer(&u8g2);
 118:Src/main.c    ****       timeRefesh = HAL_GetTick();
 119:Src/main.c    ****     }
 120:Src/main.c    ****     /* USER CODE END WHILE */
 121:Src/main.c    **** 
 122:Src/main.c    ****     /* USER CODE BEGIN 3 */
 123:Src/main.c    ****   }
 124:Src/main.c    ****   /* USER CODE END 3 */
 125:Src/main.c    **** }
 126:Src/main.c    **** 
 127:Src/main.c    **** /**
 128:Src/main.c    ****   * @brief System Clock Configuration
 129:Src/main.c    ****   * @retval None
 130:Src/main.c    ****   */
 131:Src/main.c    **** void SystemClock_Config(void)
 132:Src/main.c    **** {
 133:Src/main.c    ****   RCC_OscInitTypeDef RCC_OscInitStruct = {0};
 134:Src/main.c    ****   RCC_ClkInitTypeDef RCC_ClkInitStruct = {0};
 135:Src/main.c    ****   RCC_PeriphCLKInitTypeDef PeriphClkInit = {0};
 136:Src/main.c    **** 
 137:Src/main.c    ****   /** Initializes the CPU, AHB and APB busses clocks 
 138:Src/main.c    ****   */
 139:Src/main.c    ****   RCC_OscInitStruct.OscillatorType = RCC_OSCILLATORTYPE_LSI|RCC_OSCILLATORTYPE_HSE;
 140:Src/main.c    ****   RCC_OscInitStruct.HSEState = RCC_HSE_ON;
 141:Src/main.c    ****   RCC_OscInitStruct.HSEPredivValue = RCC_HSE_PREDIV_DIV1;
 142:Src/main.c    ****   RCC_OscInitStruct.HSIState = RCC_HSI_ON;
 143:Src/main.c    ****   RCC_OscInitStruct.LSIState = RCC_LSI_ON;
 144:Src/main.c    ****   RCC_OscInitStruct.PLL.PLLState = RCC_PLL_ON;
 145:Src/main.c    ****   RCC_OscInitStruct.PLL.PLLSource = RCC_PLLSOURCE_HSE;
 146:Src/main.c    ****   RCC_OscInitStruct.PLL.PLLMUL = RCC_PLL_MUL9;
ARM GAS  C:\Users\behun\AppData\Local\Temp\ccK2kcBn.s 			page 4


 147:Src/main.c    ****   if (HAL_RCC_OscConfig(&RCC_OscInitStruct) != HAL_OK)
 148:Src/main.c    ****   {
 149:Src/main.c    ****     Error_Handler();
 150:Src/main.c    ****   }
 151:Src/main.c    ****   /** Initializes the CPU, AHB and APB busses clocks 
 152:Src/main.c    ****   */
 153:Src/main.c    ****   RCC_ClkInitStruct.ClockType = RCC_CLOCKTYPE_HCLK|RCC_CLOCKTYPE_SYSCLK
 154:Src/main.c    ****                               |RCC_CLOCKTYPE_PCLK1|RCC_CLOCKTYPE_PCLK2;
 155:Src/main.c    ****   RCC_ClkInitStruct.SYSCLKSource = RCC_SYSCLKSOURCE_PLLCLK;
 156:Src/main.c    ****   RCC_ClkInitStruct.AHBCLKDivider = RCC_SYSCLK_DIV1;
 157:Src/main.c    ****   RCC_ClkInitStruct.APB1CLKDivider = RCC_HCLK_DIV2;
 158:Src/main.c    ****   RCC_ClkInitStruct.APB2CLKDivider = RCC_HCLK_DIV1;
 159:Src/main.c    **** 
 160:Src/main.c    ****   
 161:Src/main.c    ****   if (HAL_RCC_ClockConfig(&RCC_ClkInitStruct, FLASH_LATENCY_2) != HAL_OK)
 162:Src/main.c    ****   {
 163:Src/main.c    ****     Error_Handler();
 164:Src/main.c    ****   }
 165:Src/main.c    ****   PeriphClkInit.PeriphClockSelection = RCC_PERIPHCLK_USB;
 166:Src/main.c    ****   PeriphClkInit.UsbClockSelection = RCC_USBCLKSOURCE_PLL_DIV1_5;
 167:Src/main.c    ****   if (HAL_RCCEx_PeriphCLKConfig(&PeriphClkInit) != HAL_OK)
 168:Src/main.c    ****   {
 169:Src/main.c    ****     Error_Handler();
 170:Src/main.c    ****   }
 171:Src/main.c    **** }
 172:Src/main.c    **** 
 173:Src/main.c    **** /* USER CODE BEGIN 4 */
 174:Src/main.c    **** 
 175:Src/main.c    **** /* USER CODE END 4 */
 176:Src/main.c    **** 
 177:Src/main.c    **** uint8_t u8g2_gpio_and_delay_stm32(U8X8_UNUSED u8x8_t *u8x8, U8X8_UNUSED uint8_t msg, U8X8_UNUSED ui
 178:Src/main.c    **** {
 179:Src/main.c    ****     GPIO_InitTypeDef  gpioinitstruct;
 180:Src/main.c    ****   
 181:Src/main.c    ****     switch(msg){
 182:Src/main.c    **** 
 183:Src/main.c    ****     //Function which implements a delay, arg_int contains the amount of ms
 184:Src/main.c    ****     case U8X8_MSG_GPIO_AND_DELAY_INIT:
 185:Src/main.c    **** 
 186:Src/main.c    ****     __HAL_RCC_GPIOA_CLK_ENABLE();
 187:Src/main.c    ****     /* Configure the GPIO_LED pin */
 188:Src/main.c    ****     gpioinitstruct.Pin    = GPIO_PIN_3|GPIO_PIN_4|GPIO_PIN_5|GPIO_PIN_7;
 189:Src/main.c    ****     gpioinitstruct.Mode   = GPIO_MODE_OUTPUT_PP;
 190:Src/main.c    ****     gpioinitstruct.Pull   = GPIO_NOPULL;
 191:Src/main.c    ****     gpioinitstruct.Speed  = GPIO_SPEED_FREQ_HIGH;
 192:Src/main.c    ****     HAL_GPIO_Init(GPIOA, &gpioinitstruct);
 193:Src/main.c    ****     HAL_GPIO_WritePin(GPIOA, GPIO_PIN_3|GPIO_PIN_4|GPIO_PIN_5|GPIO_PIN_7, GPIO_PIN_SET);
 194:Src/main.c    **** 
 195:Src/main.c    ****     break;
 196:Src/main.c    ****     //Function which implements a delay, arg_int contains the amount of ms
 197:Src/main.c    ****     case U8X8_MSG_DELAY_MILLI:
 198:Src/main.c    ****     HAL_Delay(arg_int);
 199:Src/main.c    ****     break;
 200:Src/main.c    ****     //Function which delays 10us
 201:Src/main.c    ****     case U8X8_MSG_DELAY_10MICRO:
 202:Src/main.c    ****     delay_us(10);
 203:Src/main.c    ****     break;
ARM GAS  C:\Users\behun\AppData\Local\Temp\ccK2kcBn.s 			page 5


 204:Src/main.c    ****     //Function which delays 100ns
 205:Src/main.c    ****     case U8X8_MSG_DELAY_100NANO:
 206:Src/main.c    ****     __NOP();
 207:Src/main.c    **** 
 208:Src/main.c    ****     break;
 209:Src/main.c    ****     //Function to define the logic level of the clockline
 210:Src/main.c    ****     case U8X8_MSG_GPIO_SPI_CLOCK:
 211:Src/main.c    ****       if (arg_int) LCD_SCLK_1;
 212:Src/main.c    ****       else LCD_SCLK_0;
 213:Src/main.c    **** 
 214:Src/main.c    ****     break;
 215:Src/main.c    ****     //Function to define the logic level of the data line to the display
 216:Src/main.c    ****     case U8X8_MSG_GPIO_SPI_DATA:
 217:Src/main.c    ****       if (arg_int) LCD_SID_1;
 218:Src/main.c    ****       else LCD_SID_0;
 219:Src/main.c    **** 
 220:Src/main.c    ****     break;
 221:Src/main.c    **** 
 222:Src/main.c    ****     // Function to define the logic level of the CS line
 223:Src/main.c    ****     case U8X8_MSG_GPIO_CS1:
 224:Src/main.c    ****       if (arg_int) LCD_RS_1 ;
 225:Src/main.c    ****       else LCD_RS_0;
 226:Src/main.c    **** 
 227:Src/main.c    ****     break;
 228:Src/main.c    ****     //Function to define the logic level of the Data/ Command line
 229:Src/main.c    ****     case U8X8_MSG_GPIO_DC:
 230:Src/main.c    **** 
 231:Src/main.c    ****     break;
 232:Src/main.c    ****     //Function to define the logic level of the RESET line
 233:Src/main.c    ****     case U8X8_MSG_GPIO_RESET:
 234:Src/main.c    ****       if (arg_int) LCD_RST_1;
 235:Src/main.c    ****       else LCD_RST_0;
 236:Src/main.c    **** 
 237:Src/main.c    ****     break;
 238:Src/main.c    ****     
 239:Src/main.c    ****     default:
 240:Src/main.c    ****       return 0; //A message was received which is not implemented, return 0 to indicate an error
 241:Src/main.c    ****   }
 242:Src/main.c    **** 
 243:Src/main.c    ****   return 1; // command processed successfully.
 244:Src/main.c    **** }
 245:Src/main.c    **** 
 246:Src/main.c    **** /**
 247:Src/main.c    ****   * @brief  This function is executed in case of error occurrence.
 248:Src/main.c    ****   * @retval None
 249:Src/main.c    ****   */
 250:Src/main.c    **** void Error_Handler(void)
 251:Src/main.c    **** {
 252:Src/main.c    ****   /* USER CODE BEGIN Error_Handler_Debug */
 253:Src/main.c    ****   /* User can add his own implementation to report the HAL error return state */
 254:Src/main.c    **** 
 255:Src/main.c    ****   /* USER CODE END Error_Handler_Debug */
 256:Src/main.c    **** }
 257:Src/main.c    **** 
 258:Src/main.c    **** #ifdef  USE_FULL_ASSERT
 259:Src/main.c    **** /**
 260:Src/main.c    ****   * @brief  Reports the name of the source file and the source line number
ARM GAS  C:\Users\behun\AppData\Local\Temp\ccK2kcBn.s 			page 6


 261:Src/main.c    ****   *         where the assert_param error has occurred.
 262:Src/main.c    ****   * @param  file: pointer to the source file name
 263:Src/main.c    ****   * @param  line: assert_param error line source number
 264:Src/main.c    ****   * @retval None
 265:Src/main.c    ****   */
 266:Src/main.c    **** void assert_failed(uint8_t *file, uint32_t line)
 267:Src/main.c    **** { 
 268:Src/main.c    ****   /* USER CODE BEGIN 6 */
 269:Src/main.c    ****   /* User can add his own implementation to report the file name and line number,
 270:Src/main.c    ****      tex: printf("Wrong parameters value: file %s on line %d\r\n", file, line) */
 271:Src/main.c    ****   /* USER CODE END 6 */
 272:Src/main.c    **** }
 273:Src/main.c    **** #endif /* USE_FULL_ASSERT */
 274:Src/main.c    **** 
 275:Src/main.c    **** int _write(int file, char *data, int len)
 276:Src/main.c    **** {
 277:Src/main.c    ****   if((file != STDOUT_FILENO) && (file != STDERR_FILENO))
 278:Src/main.c    ****   {
 279:Src/main.c    ****     errno = EBADF;
 280:Src/main.c    ****     return -1;
 281:Src/main.c    ****   }
 282:Src/main.c    ****   uint8_t status = CDC_Transmit_FS((uint8_t*)data, len);
 283:Src/main.c    ****   return status; 
 284:Src/main.c    **** }
 285:Src/main.c    **** 
 286:Src/main.c    **** static void delay_us(uint32_t time)
 287:Src/main.c    **** {
  27              		.loc 1 287 1 view -0
  28              		.cfi_startproc
  29              		@ args = 0, pretend = 0, frame = 0
  30              		@ frame_needed = 0, uses_anonymous_args = 0
  31              		@ link register save eliminated.
 288:Src/main.c    ****   asm volatile("nop");
  32              		.loc 1 288 3 view .LVU1
  33              		.syntax unified
  34              	@ 288 "Src/main.c" 1
  35 0000 00BF     		nop
  36              	@ 0 "" 2
 289:Src/main.c    ****   // uint32_t i = 0;
 290:Src/main.c    ****   // while(time--)
 291:Src/main.c    ****   // {
 292:Src/main.c    ****   //   i = 10;
 293:Src/main.c    ****   //   while(i--);
 294:Src/main.c    ****   // }
 295:Src/main.c    **** }
  37              		.loc 1 295 1 is_stmt 0 view .LVU2
  38              		.thumb
  39              		.syntax unified
  40 0002 7047     		bx	lr
  41              		.cfi_endproc
  42              	.LFE71:
  44              		.section	.text.u8g2_gpio_and_delay_stm32,"ax",%progbits
  45              		.align	1
  46              		.global	u8g2_gpio_and_delay_stm32
  47              		.syntax unified
  48              		.thumb
  49              		.thumb_func
ARM GAS  C:\Users\behun\AppData\Local\Temp\ccK2kcBn.s 			page 7


  50              		.fpu softvfp
  52              	u8g2_gpio_and_delay_stm32:
  53              	.LVL1:
  54              	.LFB68:
 178:Src/main.c    ****     GPIO_InitTypeDef  gpioinitstruct;
  55              		.loc 1 178 1 is_stmt 1 view -0
  56              		.cfi_startproc
  57              		@ args = 0, pretend = 0, frame = 24
  58              		@ frame_needed = 0, uses_anonymous_args = 0
 178:Src/main.c    ****     GPIO_InitTypeDef  gpioinitstruct;
  59              		.loc 1 178 1 is_stmt 0 view .LVU4
  60 0000 70B5     		push	{r4, r5, r6, lr}
  61              	.LCFI0:
  62              		.cfi_def_cfa_offset 16
  63              		.cfi_offset 4, -16
  64              		.cfi_offset 5, -12
  65              		.cfi_offset 6, -8
  66              		.cfi_offset 14, -4
  67 0002 86B0     		sub	sp, sp, #24
  68              	.LCFI1:
  69              		.cfi_def_cfa_offset 40
 179:Src/main.c    ****   
  70              		.loc 1 179 5 is_stmt 1 view .LVU5
 181:Src/main.c    **** 
  71              		.loc 1 181 5 view .LVU6
  72 0004 2839     		subs	r1, r1, #40
  73              	.LVL2:
 181:Src/main.c    **** 
  74              		.loc 1 181 5 is_stmt 0 view .LVU7
  75 0006 2629     		cmp	r1, #38
  76 0008 15D8     		bhi	.L3
  77 000a DFE801F0 		tbb	[pc, r1]
  78              	.LVL3:
  79              	.L5:
  80 000e 16       		.byte	(.L13-.L5)/2
  81 000f 34       		.byte	(.L12-.L5)/2
  82 0010 39       		.byte	(.L11-.L5)/2
  83 0011 3E       		.byte	(.L10-.L5)/2
  84 0012 14       		.byte	(.L3-.L5)/2
  85 0013 14       		.byte	(.L3-.L5)/2
  86 0014 14       		.byte	(.L3-.L5)/2
  87 0015 14       		.byte	(.L3-.L5)/2
  88 0016 14       		.byte	(.L3-.L5)/2
  89 0017 14       		.byte	(.L3-.L5)/2
  90 0018 14       		.byte	(.L3-.L5)/2
  91 0019 14       		.byte	(.L3-.L5)/2
  92 001a 14       		.byte	(.L3-.L5)/2
  93 001b 14       		.byte	(.L3-.L5)/2
  94 001c 14       		.byte	(.L3-.L5)/2
  95 001d 14       		.byte	(.L3-.L5)/2
  96 001e 14       		.byte	(.L3-.L5)/2
  97 001f 14       		.byte	(.L3-.L5)/2
  98 0020 14       		.byte	(.L3-.L5)/2
  99 0021 14       		.byte	(.L3-.L5)/2
 100 0022 14       		.byte	(.L3-.L5)/2
 101 0023 14       		.byte	(.L3-.L5)/2
 102 0024 14       		.byte	(.L3-.L5)/2
ARM GAS  C:\Users\behun\AppData\Local\Temp\ccK2kcBn.s 			page 8


 103 0025 14       		.byte	(.L3-.L5)/2
 104 0026 41       		.byte	(.L9-.L5)/2
 105 0027 50       		.byte	(.L8-.L5)/2
 106 0028 14       		.byte	(.L3-.L5)/2
 107 0029 14       		.byte	(.L3-.L5)/2
 108 002a 14       		.byte	(.L3-.L5)/2
 109 002b 14       		.byte	(.L3-.L5)/2
 110 002c 14       		.byte	(.L3-.L5)/2
 111 002d 14       		.byte	(.L3-.L5)/2
 112 002e 14       		.byte	(.L3-.L5)/2
 113 002f 14       		.byte	(.L3-.L5)/2
 114 0030 7D       		.byte	(.L18-.L5)/2
 115 0031 6E       		.byte	(.L6-.L5)/2
 116 0032 14       		.byte	(.L3-.L5)/2
 117 0033 14       		.byte	(.L3-.L5)/2
 118 0034 5F       		.byte	(.L4-.L5)/2
 119 0035 00       		.p2align 1
 120              	.L3:
 240:Src/main.c    ****   }
 121              		.loc 1 240 14 view .LVU8
 122 0036 0020     		movs	r0, #0
 123              	.LVL4:
 240:Src/main.c    ****   }
 124              		.loc 1 240 14 view .LVU9
 125 0038 67E0     		b	.L7
 126              	.LVL5:
 127              	.L13:
 186:Src/main.c    ****     /* Configure the GPIO_LED pin */
 128              		.loc 1 186 5 is_stmt 1 view .LVU10
 129              	.LBB5:
 186:Src/main.c    ****     /* Configure the GPIO_LED pin */
 130              		.loc 1 186 5 view .LVU11
 186:Src/main.c    ****     /* Configure the GPIO_LED pin */
 131              		.loc 1 186 5 view .LVU12
 132 003a 354B     		ldr	r3, .L20
 133 003c 9A69     		ldr	r2, [r3, #24]
 134              	.LVL6:
 186:Src/main.c    ****     /* Configure the GPIO_LED pin */
 135              		.loc 1 186 5 is_stmt 0 view .LVU13
 136 003e 42F00402 		orr	r2, r2, #4
 137 0042 9A61     		str	r2, [r3, #24]
 186:Src/main.c    ****     /* Configure the GPIO_LED pin */
 138              		.loc 1 186 5 is_stmt 1 view .LVU14
 139 0044 9B69     		ldr	r3, [r3, #24]
 140 0046 03F00403 		and	r3, r3, #4
 141 004a 0193     		str	r3, [sp, #4]
 186:Src/main.c    ****     /* Configure the GPIO_LED pin */
 142              		.loc 1 186 5 view .LVU15
 143 004c 019B     		ldr	r3, [sp, #4]
 144              	.LBE5:
 188:Src/main.c    ****     gpioinitstruct.Mode   = GPIO_MODE_OUTPUT_PP;
 145              		.loc 1 188 5 view .LVU16
 188:Src/main.c    ****     gpioinitstruct.Mode   = GPIO_MODE_OUTPUT_PP;
 146              		.loc 1 188 27 is_stmt 0 view .LVU17
 147 004e B826     		movs	r6, #184
 148 0050 0296     		str	r6, [sp, #8]
 189:Src/main.c    ****     gpioinitstruct.Pull   = GPIO_NOPULL;
ARM GAS  C:\Users\behun\AppData\Local\Temp\ccK2kcBn.s 			page 9


 149              		.loc 1 189 5 is_stmt 1 view .LVU18
 189:Src/main.c    ****     gpioinitstruct.Pull   = GPIO_NOPULL;
 150              		.loc 1 189 27 is_stmt 0 view .LVU19
 151 0052 0124     		movs	r4, #1
 152 0054 0394     		str	r4, [sp, #12]
 190:Src/main.c    ****     gpioinitstruct.Speed  = GPIO_SPEED_FREQ_HIGH;
 153              		.loc 1 190 5 is_stmt 1 view .LVU20
 190:Src/main.c    ****     gpioinitstruct.Speed  = GPIO_SPEED_FREQ_HIGH;
 154              		.loc 1 190 27 is_stmt 0 view .LVU21
 155 0056 0023     		movs	r3, #0
 156 0058 0493     		str	r3, [sp, #16]
 191:Src/main.c    ****     HAL_GPIO_Init(GPIOA, &gpioinitstruct);
 157              		.loc 1 191 5 is_stmt 1 view .LVU22
 191:Src/main.c    ****     HAL_GPIO_Init(GPIOA, &gpioinitstruct);
 158              		.loc 1 191 27 is_stmt 0 view .LVU23
 159 005a 0323     		movs	r3, #3
 160 005c 0593     		str	r3, [sp, #20]
 192:Src/main.c    ****     HAL_GPIO_WritePin(GPIOA, GPIO_PIN_3|GPIO_PIN_4|GPIO_PIN_5|GPIO_PIN_7, GPIO_PIN_SET);
 161              		.loc 1 192 5 is_stmt 1 view .LVU24
 162 005e 2D4D     		ldr	r5, .L20+4
 163 0060 02A9     		add	r1, sp, #8
 164 0062 2846     		mov	r0, r5
 165              	.LVL7:
 192:Src/main.c    ****     HAL_GPIO_WritePin(GPIOA, GPIO_PIN_3|GPIO_PIN_4|GPIO_PIN_5|GPIO_PIN_7, GPIO_PIN_SET);
 166              		.loc 1 192 5 is_stmt 0 view .LVU25
 167 0064 FFF7FEFF 		bl	HAL_GPIO_Init
 168              	.LVL8:
 193:Src/main.c    **** 
 169              		.loc 1 193 5 is_stmt 1 view .LVU26
 170 0068 2246     		mov	r2, r4
 171 006a 3146     		mov	r1, r6
 172 006c 2846     		mov	r0, r5
 173 006e FFF7FEFF 		bl	HAL_GPIO_WritePin
 174              	.LVL9:
 195:Src/main.c    ****     //Function which implements a delay, arg_int contains the amount of ms
 175              		.loc 1 195 5 view .LVU27
 243:Src/main.c    **** }
 176              		.loc 1 243 10 is_stmt 0 view .LVU28
 177 0072 2046     		mov	r0, r4
 195:Src/main.c    ****     //Function which implements a delay, arg_int contains the amount of ms
 178              		.loc 1 195 5 view .LVU29
 179 0074 49E0     		b	.L7
 180              	.LVL10:
 181              	.L12:
 198:Src/main.c    ****     break;
 182              		.loc 1 198 5 is_stmt 1 view .LVU30
 183 0076 1046     		mov	r0, r2
 184              	.LVL11:
 198:Src/main.c    ****     break;
 185              		.loc 1 198 5 is_stmt 0 view .LVU31
 186 0078 FFF7FEFF 		bl	HAL_Delay
 187              	.LVL12:
 199:Src/main.c    ****     //Function which delays 10us
 188              		.loc 1 199 5 is_stmt 1 view .LVU32
 243:Src/main.c    **** }
 189              		.loc 1 243 10 is_stmt 0 view .LVU33
 190 007c 0120     		movs	r0, #1
ARM GAS  C:\Users\behun\AppData\Local\Temp\ccK2kcBn.s 			page 10


 199:Src/main.c    ****     //Function which delays 10us
 191              		.loc 1 199 5 view .LVU34
 192 007e 44E0     		b	.L7
 193              	.LVL13:
 194              	.L11:
 202:Src/main.c    ****     break;
 195              		.loc 1 202 5 is_stmt 1 view .LVU35
 196 0080 0A20     		movs	r0, #10
 197              	.LVL14:
 202:Src/main.c    ****     break;
 198              		.loc 1 202 5 is_stmt 0 view .LVU36
 199 0082 FFF7FEFF 		bl	delay_us
 200              	.LVL15:
 203:Src/main.c    ****     //Function which delays 100ns
 201              		.loc 1 203 5 is_stmt 1 view .LVU37
 243:Src/main.c    **** }
 202              		.loc 1 243 10 is_stmt 0 view .LVU38
 203 0086 0120     		movs	r0, #1
 203:Src/main.c    ****     //Function which delays 100ns
 204              		.loc 1 203 5 view .LVU39
 205 0088 3FE0     		b	.L7
 206              	.LVL16:
 207              	.L10:
 206:Src/main.c    **** 
 208              		.loc 1 206 5 is_stmt 1 view .LVU40
 209              	.LBB6:
 210              	.LBI6:
 211              		.file 2 "Drivers/CMSIS/Include/cmsis_gcc.h"
   1:Drivers/CMSIS/Include/cmsis_gcc.h **** /**************************************************************************//**
   2:Drivers/CMSIS/Include/cmsis_gcc.h ****  * @file     cmsis_gcc.h
   3:Drivers/CMSIS/Include/cmsis_gcc.h ****  * @brief    CMSIS Cortex-M Core Function/Instruction Header File
   4:Drivers/CMSIS/Include/cmsis_gcc.h ****  * @version  V4.30
   5:Drivers/CMSIS/Include/cmsis_gcc.h ****  * @date     20. October 2015
   6:Drivers/CMSIS/Include/cmsis_gcc.h ****  ******************************************************************************/
   7:Drivers/CMSIS/Include/cmsis_gcc.h **** /* Copyright (c) 2009 - 2015 ARM LIMITED
   8:Drivers/CMSIS/Include/cmsis_gcc.h **** 
   9:Drivers/CMSIS/Include/cmsis_gcc.h ****    All rights reserved.
  10:Drivers/CMSIS/Include/cmsis_gcc.h ****    Redistribution and use in source and binary forms, with or without
  11:Drivers/CMSIS/Include/cmsis_gcc.h ****    modification, are permitted provided that the following conditions are met:
  12:Drivers/CMSIS/Include/cmsis_gcc.h ****    - Redistributions of source code must retain the above copyright
  13:Drivers/CMSIS/Include/cmsis_gcc.h ****      notice, this list of conditions and the following disclaimer.
  14:Drivers/CMSIS/Include/cmsis_gcc.h ****    - Redistributions in binary form must reproduce the above copyright
  15:Drivers/CMSIS/Include/cmsis_gcc.h ****      notice, this list of conditions and the following disclaimer in the
  16:Drivers/CMSIS/Include/cmsis_gcc.h ****      documentation and/or other materials provided with the distribution.
  17:Drivers/CMSIS/Include/cmsis_gcc.h ****    - Neither the name of ARM nor the names of its contributors may be used
  18:Drivers/CMSIS/Include/cmsis_gcc.h ****      to endorse or promote products derived from this software without
  19:Drivers/CMSIS/Include/cmsis_gcc.h ****      specific prior written permission.
  20:Drivers/CMSIS/Include/cmsis_gcc.h ****    *
  21:Drivers/CMSIS/Include/cmsis_gcc.h ****    THIS SOFTWARE IS PROVIDED BY THE COPYRIGHT HOLDERS AND CONTRIBUTORS "AS IS"
  22:Drivers/CMSIS/Include/cmsis_gcc.h ****    AND ANY EXPRESS OR IMPLIED WARRANTIES, INCLUDING, BUT NOT LIMITED TO, THE
  23:Drivers/CMSIS/Include/cmsis_gcc.h ****    IMPLIED WARRANTIES OF MERCHANTABILITY AND FITNESS FOR A PARTICULAR PURPOSE
  24:Drivers/CMSIS/Include/cmsis_gcc.h ****    ARE DISCLAIMED. IN NO EVENT SHALL COPYRIGHT HOLDERS AND CONTRIBUTORS BE
  25:Drivers/CMSIS/Include/cmsis_gcc.h ****    LIABLE FOR ANY DIRECT, INDIRECT, INCIDENTAL, SPECIAL, EXEMPLARY, OR
  26:Drivers/CMSIS/Include/cmsis_gcc.h ****    CONSEQUENTIAL DAMAGES (INCLUDING, BUT NOT LIMITED TO, PROCUREMENT OF
  27:Drivers/CMSIS/Include/cmsis_gcc.h ****    SUBSTITUTE GOODS OR SERVICES; LOSS OF USE, DATA, OR PROFITS; OR BUSINESS
  28:Drivers/CMSIS/Include/cmsis_gcc.h ****    INTERRUPTION) HOWEVER CAUSED AND ON ANY THEORY OF LIABILITY, WHETHER IN
  29:Drivers/CMSIS/Include/cmsis_gcc.h ****    CONTRACT, STRICT LIABILITY, OR TORT (INCLUDING NEGLIGENCE OR OTHERWISE)
ARM GAS  C:\Users\behun\AppData\Local\Temp\ccK2kcBn.s 			page 11


  30:Drivers/CMSIS/Include/cmsis_gcc.h ****    ARISING IN ANY WAY OUT OF THE USE OF THIS SOFTWARE, EVEN IF ADVISED OF THE
  31:Drivers/CMSIS/Include/cmsis_gcc.h ****    POSSIBILITY OF SUCH DAMAGE.
  32:Drivers/CMSIS/Include/cmsis_gcc.h ****    ---------------------------------------------------------------------------*/
  33:Drivers/CMSIS/Include/cmsis_gcc.h **** 
  34:Drivers/CMSIS/Include/cmsis_gcc.h **** 
  35:Drivers/CMSIS/Include/cmsis_gcc.h **** #ifndef __CMSIS_GCC_H
  36:Drivers/CMSIS/Include/cmsis_gcc.h **** #define __CMSIS_GCC_H
  37:Drivers/CMSIS/Include/cmsis_gcc.h **** 
  38:Drivers/CMSIS/Include/cmsis_gcc.h **** /* ignore some GCC warnings */
  39:Drivers/CMSIS/Include/cmsis_gcc.h **** #if defined ( __GNUC__ )
  40:Drivers/CMSIS/Include/cmsis_gcc.h **** #pragma GCC diagnostic push
  41:Drivers/CMSIS/Include/cmsis_gcc.h **** #pragma GCC diagnostic ignored "-Wsign-conversion"
  42:Drivers/CMSIS/Include/cmsis_gcc.h **** #pragma GCC diagnostic ignored "-Wconversion"
  43:Drivers/CMSIS/Include/cmsis_gcc.h **** #pragma GCC diagnostic ignored "-Wunused-parameter"
  44:Drivers/CMSIS/Include/cmsis_gcc.h **** #endif
  45:Drivers/CMSIS/Include/cmsis_gcc.h **** 
  46:Drivers/CMSIS/Include/cmsis_gcc.h **** 
  47:Drivers/CMSIS/Include/cmsis_gcc.h **** /* ###########################  Core Function Access  ########################### */
  48:Drivers/CMSIS/Include/cmsis_gcc.h **** /** \ingroup  CMSIS_Core_FunctionInterface
  49:Drivers/CMSIS/Include/cmsis_gcc.h ****     \defgroup CMSIS_Core_RegAccFunctions CMSIS Core Register Access Functions
  50:Drivers/CMSIS/Include/cmsis_gcc.h ****   @{
  51:Drivers/CMSIS/Include/cmsis_gcc.h ****  */
  52:Drivers/CMSIS/Include/cmsis_gcc.h **** 
  53:Drivers/CMSIS/Include/cmsis_gcc.h **** /**
  54:Drivers/CMSIS/Include/cmsis_gcc.h ****   \brief   Enable IRQ Interrupts
  55:Drivers/CMSIS/Include/cmsis_gcc.h ****   \details Enables IRQ interrupts by clearing the I-bit in the CPSR.
  56:Drivers/CMSIS/Include/cmsis_gcc.h ****            Can only be executed in Privileged modes.
  57:Drivers/CMSIS/Include/cmsis_gcc.h ****  */
  58:Drivers/CMSIS/Include/cmsis_gcc.h **** __attribute__( ( always_inline ) ) __STATIC_INLINE void __enable_irq(void)
  59:Drivers/CMSIS/Include/cmsis_gcc.h **** {
  60:Drivers/CMSIS/Include/cmsis_gcc.h ****   __ASM volatile ("cpsie i" : : : "memory");
  61:Drivers/CMSIS/Include/cmsis_gcc.h **** }
  62:Drivers/CMSIS/Include/cmsis_gcc.h **** 
  63:Drivers/CMSIS/Include/cmsis_gcc.h **** 
  64:Drivers/CMSIS/Include/cmsis_gcc.h **** /**
  65:Drivers/CMSIS/Include/cmsis_gcc.h ****   \brief   Disable IRQ Interrupts
  66:Drivers/CMSIS/Include/cmsis_gcc.h ****   \details Disables IRQ interrupts by setting the I-bit in the CPSR.
  67:Drivers/CMSIS/Include/cmsis_gcc.h ****   Can only be executed in Privileged modes.
  68:Drivers/CMSIS/Include/cmsis_gcc.h ****  */
  69:Drivers/CMSIS/Include/cmsis_gcc.h **** __attribute__( ( always_inline ) ) __STATIC_INLINE void __disable_irq(void)
  70:Drivers/CMSIS/Include/cmsis_gcc.h **** {
  71:Drivers/CMSIS/Include/cmsis_gcc.h ****   __ASM volatile ("cpsid i" : : : "memory");
  72:Drivers/CMSIS/Include/cmsis_gcc.h **** }
  73:Drivers/CMSIS/Include/cmsis_gcc.h **** 
  74:Drivers/CMSIS/Include/cmsis_gcc.h **** 
  75:Drivers/CMSIS/Include/cmsis_gcc.h **** /**
  76:Drivers/CMSIS/Include/cmsis_gcc.h ****   \brief   Get Control Register
  77:Drivers/CMSIS/Include/cmsis_gcc.h ****   \details Returns the content of the Control Register.
  78:Drivers/CMSIS/Include/cmsis_gcc.h ****   \return               Control Register value
  79:Drivers/CMSIS/Include/cmsis_gcc.h ****  */
  80:Drivers/CMSIS/Include/cmsis_gcc.h **** __attribute__( ( always_inline ) ) __STATIC_INLINE uint32_t __get_CONTROL(void)
  81:Drivers/CMSIS/Include/cmsis_gcc.h **** {
  82:Drivers/CMSIS/Include/cmsis_gcc.h ****   uint32_t result;
  83:Drivers/CMSIS/Include/cmsis_gcc.h **** 
  84:Drivers/CMSIS/Include/cmsis_gcc.h ****   __ASM volatile ("MRS %0, control" : "=r" (result) );
  85:Drivers/CMSIS/Include/cmsis_gcc.h ****   return(result);
  86:Drivers/CMSIS/Include/cmsis_gcc.h **** }
ARM GAS  C:\Users\behun\AppData\Local\Temp\ccK2kcBn.s 			page 12


  87:Drivers/CMSIS/Include/cmsis_gcc.h **** 
  88:Drivers/CMSIS/Include/cmsis_gcc.h **** 
  89:Drivers/CMSIS/Include/cmsis_gcc.h **** /**
  90:Drivers/CMSIS/Include/cmsis_gcc.h ****   \brief   Set Control Register
  91:Drivers/CMSIS/Include/cmsis_gcc.h ****   \details Writes the given value to the Control Register.
  92:Drivers/CMSIS/Include/cmsis_gcc.h ****   \param [in]    control  Control Register value to set
  93:Drivers/CMSIS/Include/cmsis_gcc.h ****  */
  94:Drivers/CMSIS/Include/cmsis_gcc.h **** __attribute__( ( always_inline ) ) __STATIC_INLINE void __set_CONTROL(uint32_t control)
  95:Drivers/CMSIS/Include/cmsis_gcc.h **** {
  96:Drivers/CMSIS/Include/cmsis_gcc.h ****   __ASM volatile ("MSR control, %0" : : "r" (control) : "memory");
  97:Drivers/CMSIS/Include/cmsis_gcc.h **** }
  98:Drivers/CMSIS/Include/cmsis_gcc.h **** 
  99:Drivers/CMSIS/Include/cmsis_gcc.h **** 
 100:Drivers/CMSIS/Include/cmsis_gcc.h **** /**
 101:Drivers/CMSIS/Include/cmsis_gcc.h ****   \brief   Get IPSR Register
 102:Drivers/CMSIS/Include/cmsis_gcc.h ****   \details Returns the content of the IPSR Register.
 103:Drivers/CMSIS/Include/cmsis_gcc.h ****   \return               IPSR Register value
 104:Drivers/CMSIS/Include/cmsis_gcc.h ****  */
 105:Drivers/CMSIS/Include/cmsis_gcc.h **** __attribute__( ( always_inline ) ) __STATIC_INLINE uint32_t __get_IPSR(void)
 106:Drivers/CMSIS/Include/cmsis_gcc.h **** {
 107:Drivers/CMSIS/Include/cmsis_gcc.h ****   uint32_t result;
 108:Drivers/CMSIS/Include/cmsis_gcc.h **** 
 109:Drivers/CMSIS/Include/cmsis_gcc.h ****   __ASM volatile ("MRS %0, ipsr" : "=r" (result) );
 110:Drivers/CMSIS/Include/cmsis_gcc.h ****   return(result);
 111:Drivers/CMSIS/Include/cmsis_gcc.h **** }
 112:Drivers/CMSIS/Include/cmsis_gcc.h **** 
 113:Drivers/CMSIS/Include/cmsis_gcc.h **** 
 114:Drivers/CMSIS/Include/cmsis_gcc.h **** /**
 115:Drivers/CMSIS/Include/cmsis_gcc.h ****   \brief   Get APSR Register
 116:Drivers/CMSIS/Include/cmsis_gcc.h ****   \details Returns the content of the APSR Register.
 117:Drivers/CMSIS/Include/cmsis_gcc.h ****   \return               APSR Register value
 118:Drivers/CMSIS/Include/cmsis_gcc.h ****  */
 119:Drivers/CMSIS/Include/cmsis_gcc.h **** __attribute__( ( always_inline ) ) __STATIC_INLINE uint32_t __get_APSR(void)
 120:Drivers/CMSIS/Include/cmsis_gcc.h **** {
 121:Drivers/CMSIS/Include/cmsis_gcc.h ****   uint32_t result;
 122:Drivers/CMSIS/Include/cmsis_gcc.h **** 
 123:Drivers/CMSIS/Include/cmsis_gcc.h ****   __ASM volatile ("MRS %0, apsr" : "=r" (result) );
 124:Drivers/CMSIS/Include/cmsis_gcc.h ****   return(result);
 125:Drivers/CMSIS/Include/cmsis_gcc.h **** }
 126:Drivers/CMSIS/Include/cmsis_gcc.h **** 
 127:Drivers/CMSIS/Include/cmsis_gcc.h **** 
 128:Drivers/CMSIS/Include/cmsis_gcc.h **** /**
 129:Drivers/CMSIS/Include/cmsis_gcc.h ****   \brief   Get xPSR Register
 130:Drivers/CMSIS/Include/cmsis_gcc.h ****   \details Returns the content of the xPSR Register.
 131:Drivers/CMSIS/Include/cmsis_gcc.h **** 
 132:Drivers/CMSIS/Include/cmsis_gcc.h ****     \return               xPSR Register value
 133:Drivers/CMSIS/Include/cmsis_gcc.h ****  */
 134:Drivers/CMSIS/Include/cmsis_gcc.h **** __attribute__( ( always_inline ) ) __STATIC_INLINE uint32_t __get_xPSR(void)
 135:Drivers/CMSIS/Include/cmsis_gcc.h **** {
 136:Drivers/CMSIS/Include/cmsis_gcc.h ****   uint32_t result;
 137:Drivers/CMSIS/Include/cmsis_gcc.h **** 
 138:Drivers/CMSIS/Include/cmsis_gcc.h ****   __ASM volatile ("MRS %0, xpsr" : "=r" (result) );
 139:Drivers/CMSIS/Include/cmsis_gcc.h ****   return(result);
 140:Drivers/CMSIS/Include/cmsis_gcc.h **** }
 141:Drivers/CMSIS/Include/cmsis_gcc.h **** 
 142:Drivers/CMSIS/Include/cmsis_gcc.h **** 
 143:Drivers/CMSIS/Include/cmsis_gcc.h **** /**
ARM GAS  C:\Users\behun\AppData\Local\Temp\ccK2kcBn.s 			page 13


 144:Drivers/CMSIS/Include/cmsis_gcc.h ****   \brief   Get Process Stack Pointer
 145:Drivers/CMSIS/Include/cmsis_gcc.h ****   \details Returns the current value of the Process Stack Pointer (PSP).
 146:Drivers/CMSIS/Include/cmsis_gcc.h ****   \return               PSP Register value
 147:Drivers/CMSIS/Include/cmsis_gcc.h ****  */
 148:Drivers/CMSIS/Include/cmsis_gcc.h **** __attribute__( ( always_inline ) ) __STATIC_INLINE uint32_t __get_PSP(void)
 149:Drivers/CMSIS/Include/cmsis_gcc.h **** {
 150:Drivers/CMSIS/Include/cmsis_gcc.h ****   register uint32_t result;
 151:Drivers/CMSIS/Include/cmsis_gcc.h **** 
 152:Drivers/CMSIS/Include/cmsis_gcc.h ****   __ASM volatile ("MRS %0, psp\n"  : "=r" (result) );
 153:Drivers/CMSIS/Include/cmsis_gcc.h ****   return(result);
 154:Drivers/CMSIS/Include/cmsis_gcc.h **** }
 155:Drivers/CMSIS/Include/cmsis_gcc.h **** 
 156:Drivers/CMSIS/Include/cmsis_gcc.h **** 
 157:Drivers/CMSIS/Include/cmsis_gcc.h **** /**
 158:Drivers/CMSIS/Include/cmsis_gcc.h ****   \brief   Set Process Stack Pointer
 159:Drivers/CMSIS/Include/cmsis_gcc.h ****   \details Assigns the given value to the Process Stack Pointer (PSP).
 160:Drivers/CMSIS/Include/cmsis_gcc.h ****   \param [in]    topOfProcStack  Process Stack Pointer value to set
 161:Drivers/CMSIS/Include/cmsis_gcc.h ****  */
 162:Drivers/CMSIS/Include/cmsis_gcc.h **** __attribute__( ( always_inline ) ) __STATIC_INLINE void __set_PSP(uint32_t topOfProcStack)
 163:Drivers/CMSIS/Include/cmsis_gcc.h **** {
 164:Drivers/CMSIS/Include/cmsis_gcc.h ****   __ASM volatile ("MSR psp, %0\n" : : "r" (topOfProcStack) : "sp");
 165:Drivers/CMSIS/Include/cmsis_gcc.h **** }
 166:Drivers/CMSIS/Include/cmsis_gcc.h **** 
 167:Drivers/CMSIS/Include/cmsis_gcc.h **** 
 168:Drivers/CMSIS/Include/cmsis_gcc.h **** /**
 169:Drivers/CMSIS/Include/cmsis_gcc.h ****   \brief   Get Main Stack Pointer
 170:Drivers/CMSIS/Include/cmsis_gcc.h ****   \details Returns the current value of the Main Stack Pointer (MSP).
 171:Drivers/CMSIS/Include/cmsis_gcc.h ****   \return               MSP Register value
 172:Drivers/CMSIS/Include/cmsis_gcc.h ****  */
 173:Drivers/CMSIS/Include/cmsis_gcc.h **** __attribute__( ( always_inline ) ) __STATIC_INLINE uint32_t __get_MSP(void)
 174:Drivers/CMSIS/Include/cmsis_gcc.h **** {
 175:Drivers/CMSIS/Include/cmsis_gcc.h ****   register uint32_t result;
 176:Drivers/CMSIS/Include/cmsis_gcc.h **** 
 177:Drivers/CMSIS/Include/cmsis_gcc.h ****   __ASM volatile ("MRS %0, msp\n" : "=r" (result) );
 178:Drivers/CMSIS/Include/cmsis_gcc.h ****   return(result);
 179:Drivers/CMSIS/Include/cmsis_gcc.h **** }
 180:Drivers/CMSIS/Include/cmsis_gcc.h **** 
 181:Drivers/CMSIS/Include/cmsis_gcc.h **** 
 182:Drivers/CMSIS/Include/cmsis_gcc.h **** /**
 183:Drivers/CMSIS/Include/cmsis_gcc.h ****   \brief   Set Main Stack Pointer
 184:Drivers/CMSIS/Include/cmsis_gcc.h ****   \details Assigns the given value to the Main Stack Pointer (MSP).
 185:Drivers/CMSIS/Include/cmsis_gcc.h **** 
 186:Drivers/CMSIS/Include/cmsis_gcc.h ****     \param [in]    topOfMainStack  Main Stack Pointer value to set
 187:Drivers/CMSIS/Include/cmsis_gcc.h ****  */
 188:Drivers/CMSIS/Include/cmsis_gcc.h **** __attribute__( ( always_inline ) ) __STATIC_INLINE void __set_MSP(uint32_t topOfMainStack)
 189:Drivers/CMSIS/Include/cmsis_gcc.h **** {
 190:Drivers/CMSIS/Include/cmsis_gcc.h ****   __ASM volatile ("MSR msp, %0\n" : : "r" (topOfMainStack) : "sp");
 191:Drivers/CMSIS/Include/cmsis_gcc.h **** }
 192:Drivers/CMSIS/Include/cmsis_gcc.h **** 
 193:Drivers/CMSIS/Include/cmsis_gcc.h **** 
 194:Drivers/CMSIS/Include/cmsis_gcc.h **** /**
 195:Drivers/CMSIS/Include/cmsis_gcc.h ****   \brief   Get Priority Mask
 196:Drivers/CMSIS/Include/cmsis_gcc.h ****   \details Returns the current state of the priority mask bit from the Priority Mask Register.
 197:Drivers/CMSIS/Include/cmsis_gcc.h ****   \return               Priority Mask value
 198:Drivers/CMSIS/Include/cmsis_gcc.h ****  */
 199:Drivers/CMSIS/Include/cmsis_gcc.h **** __attribute__( ( always_inline ) ) __STATIC_INLINE uint32_t __get_PRIMASK(void)
 200:Drivers/CMSIS/Include/cmsis_gcc.h **** {
ARM GAS  C:\Users\behun\AppData\Local\Temp\ccK2kcBn.s 			page 14


 201:Drivers/CMSIS/Include/cmsis_gcc.h ****   uint32_t result;
 202:Drivers/CMSIS/Include/cmsis_gcc.h **** 
 203:Drivers/CMSIS/Include/cmsis_gcc.h ****   __ASM volatile ("MRS %0, primask" : "=r" (result) );
 204:Drivers/CMSIS/Include/cmsis_gcc.h ****   return(result);
 205:Drivers/CMSIS/Include/cmsis_gcc.h **** }
 206:Drivers/CMSIS/Include/cmsis_gcc.h **** 
 207:Drivers/CMSIS/Include/cmsis_gcc.h **** 
 208:Drivers/CMSIS/Include/cmsis_gcc.h **** /**
 209:Drivers/CMSIS/Include/cmsis_gcc.h ****   \brief   Set Priority Mask
 210:Drivers/CMSIS/Include/cmsis_gcc.h ****   \details Assigns the given value to the Priority Mask Register.
 211:Drivers/CMSIS/Include/cmsis_gcc.h ****   \param [in]    priMask  Priority Mask
 212:Drivers/CMSIS/Include/cmsis_gcc.h ****  */
 213:Drivers/CMSIS/Include/cmsis_gcc.h **** __attribute__( ( always_inline ) ) __STATIC_INLINE void __set_PRIMASK(uint32_t priMask)
 214:Drivers/CMSIS/Include/cmsis_gcc.h **** {
 215:Drivers/CMSIS/Include/cmsis_gcc.h ****   __ASM volatile ("MSR primask, %0" : : "r" (priMask) : "memory");
 216:Drivers/CMSIS/Include/cmsis_gcc.h **** }
 217:Drivers/CMSIS/Include/cmsis_gcc.h **** 
 218:Drivers/CMSIS/Include/cmsis_gcc.h **** 
 219:Drivers/CMSIS/Include/cmsis_gcc.h **** #if       (__CORTEX_M >= 0x03U)
 220:Drivers/CMSIS/Include/cmsis_gcc.h **** 
 221:Drivers/CMSIS/Include/cmsis_gcc.h **** /**
 222:Drivers/CMSIS/Include/cmsis_gcc.h ****   \brief   Enable FIQ
 223:Drivers/CMSIS/Include/cmsis_gcc.h ****   \details Enables FIQ interrupts by clearing the F-bit in the CPSR.
 224:Drivers/CMSIS/Include/cmsis_gcc.h ****            Can only be executed in Privileged modes.
 225:Drivers/CMSIS/Include/cmsis_gcc.h ****  */
 226:Drivers/CMSIS/Include/cmsis_gcc.h **** __attribute__( ( always_inline ) ) __STATIC_INLINE void __enable_fault_irq(void)
 227:Drivers/CMSIS/Include/cmsis_gcc.h **** {
 228:Drivers/CMSIS/Include/cmsis_gcc.h ****   __ASM volatile ("cpsie f" : : : "memory");
 229:Drivers/CMSIS/Include/cmsis_gcc.h **** }
 230:Drivers/CMSIS/Include/cmsis_gcc.h **** 
 231:Drivers/CMSIS/Include/cmsis_gcc.h **** 
 232:Drivers/CMSIS/Include/cmsis_gcc.h **** /**
 233:Drivers/CMSIS/Include/cmsis_gcc.h ****   \brief   Disable FIQ
 234:Drivers/CMSIS/Include/cmsis_gcc.h ****   \details Disables FIQ interrupts by setting the F-bit in the CPSR.
 235:Drivers/CMSIS/Include/cmsis_gcc.h ****            Can only be executed in Privileged modes.
 236:Drivers/CMSIS/Include/cmsis_gcc.h ****  */
 237:Drivers/CMSIS/Include/cmsis_gcc.h **** __attribute__( ( always_inline ) ) __STATIC_INLINE void __disable_fault_irq(void)
 238:Drivers/CMSIS/Include/cmsis_gcc.h **** {
 239:Drivers/CMSIS/Include/cmsis_gcc.h ****   __ASM volatile ("cpsid f" : : : "memory");
 240:Drivers/CMSIS/Include/cmsis_gcc.h **** }
 241:Drivers/CMSIS/Include/cmsis_gcc.h **** 
 242:Drivers/CMSIS/Include/cmsis_gcc.h **** 
 243:Drivers/CMSIS/Include/cmsis_gcc.h **** /**
 244:Drivers/CMSIS/Include/cmsis_gcc.h ****   \brief   Get Base Priority
 245:Drivers/CMSIS/Include/cmsis_gcc.h ****   \details Returns the current value of the Base Priority register.
 246:Drivers/CMSIS/Include/cmsis_gcc.h ****   \return               Base Priority register value
 247:Drivers/CMSIS/Include/cmsis_gcc.h ****  */
 248:Drivers/CMSIS/Include/cmsis_gcc.h **** __attribute__( ( always_inline ) ) __STATIC_INLINE uint32_t __get_BASEPRI(void)
 249:Drivers/CMSIS/Include/cmsis_gcc.h **** {
 250:Drivers/CMSIS/Include/cmsis_gcc.h ****   uint32_t result;
 251:Drivers/CMSIS/Include/cmsis_gcc.h **** 
 252:Drivers/CMSIS/Include/cmsis_gcc.h ****   __ASM volatile ("MRS %0, basepri" : "=r" (result) );
 253:Drivers/CMSIS/Include/cmsis_gcc.h ****   return(result);
 254:Drivers/CMSIS/Include/cmsis_gcc.h **** }
 255:Drivers/CMSIS/Include/cmsis_gcc.h **** 
 256:Drivers/CMSIS/Include/cmsis_gcc.h **** 
 257:Drivers/CMSIS/Include/cmsis_gcc.h **** /**
ARM GAS  C:\Users\behun\AppData\Local\Temp\ccK2kcBn.s 			page 15


 258:Drivers/CMSIS/Include/cmsis_gcc.h ****   \brief   Set Base Priority
 259:Drivers/CMSIS/Include/cmsis_gcc.h ****   \details Assigns the given value to the Base Priority register.
 260:Drivers/CMSIS/Include/cmsis_gcc.h ****   \param [in]    basePri  Base Priority value to set
 261:Drivers/CMSIS/Include/cmsis_gcc.h ****  */
 262:Drivers/CMSIS/Include/cmsis_gcc.h **** __attribute__( ( always_inline ) ) __STATIC_INLINE void __set_BASEPRI(uint32_t value)
 263:Drivers/CMSIS/Include/cmsis_gcc.h **** {
 264:Drivers/CMSIS/Include/cmsis_gcc.h ****   __ASM volatile ("MSR basepri, %0" : : "r" (value) : "memory");
 265:Drivers/CMSIS/Include/cmsis_gcc.h **** }
 266:Drivers/CMSIS/Include/cmsis_gcc.h **** 
 267:Drivers/CMSIS/Include/cmsis_gcc.h **** 
 268:Drivers/CMSIS/Include/cmsis_gcc.h **** /**
 269:Drivers/CMSIS/Include/cmsis_gcc.h ****   \brief   Set Base Priority with condition
 270:Drivers/CMSIS/Include/cmsis_gcc.h ****   \details Assigns the given value to the Base Priority register only if BASEPRI masking is disable
 271:Drivers/CMSIS/Include/cmsis_gcc.h ****            or the new value increases the BASEPRI priority level.
 272:Drivers/CMSIS/Include/cmsis_gcc.h ****   \param [in]    basePri  Base Priority value to set
 273:Drivers/CMSIS/Include/cmsis_gcc.h ****  */
 274:Drivers/CMSIS/Include/cmsis_gcc.h **** __attribute__( ( always_inline ) ) __STATIC_INLINE void __set_BASEPRI_MAX(uint32_t value)
 275:Drivers/CMSIS/Include/cmsis_gcc.h **** {
 276:Drivers/CMSIS/Include/cmsis_gcc.h ****   __ASM volatile ("MSR basepri_max, %0" : : "r" (value) : "memory");
 277:Drivers/CMSIS/Include/cmsis_gcc.h **** }
 278:Drivers/CMSIS/Include/cmsis_gcc.h **** 
 279:Drivers/CMSIS/Include/cmsis_gcc.h **** 
 280:Drivers/CMSIS/Include/cmsis_gcc.h **** /**
 281:Drivers/CMSIS/Include/cmsis_gcc.h ****   \brief   Get Fault Mask
 282:Drivers/CMSIS/Include/cmsis_gcc.h ****   \details Returns the current value of the Fault Mask register.
 283:Drivers/CMSIS/Include/cmsis_gcc.h ****   \return               Fault Mask register value
 284:Drivers/CMSIS/Include/cmsis_gcc.h ****  */
 285:Drivers/CMSIS/Include/cmsis_gcc.h **** __attribute__( ( always_inline ) ) __STATIC_INLINE uint32_t __get_FAULTMASK(void)
 286:Drivers/CMSIS/Include/cmsis_gcc.h **** {
 287:Drivers/CMSIS/Include/cmsis_gcc.h ****   uint32_t result;
 288:Drivers/CMSIS/Include/cmsis_gcc.h **** 
 289:Drivers/CMSIS/Include/cmsis_gcc.h ****   __ASM volatile ("MRS %0, faultmask" : "=r" (result) );
 290:Drivers/CMSIS/Include/cmsis_gcc.h ****   return(result);
 291:Drivers/CMSIS/Include/cmsis_gcc.h **** }
 292:Drivers/CMSIS/Include/cmsis_gcc.h **** 
 293:Drivers/CMSIS/Include/cmsis_gcc.h **** 
 294:Drivers/CMSIS/Include/cmsis_gcc.h **** /**
 295:Drivers/CMSIS/Include/cmsis_gcc.h ****   \brief   Set Fault Mask
 296:Drivers/CMSIS/Include/cmsis_gcc.h ****   \details Assigns the given value to the Fault Mask register.
 297:Drivers/CMSIS/Include/cmsis_gcc.h ****   \param [in]    faultMask  Fault Mask value to set
 298:Drivers/CMSIS/Include/cmsis_gcc.h ****  */
 299:Drivers/CMSIS/Include/cmsis_gcc.h **** __attribute__( ( always_inline ) ) __STATIC_INLINE void __set_FAULTMASK(uint32_t faultMask)
 300:Drivers/CMSIS/Include/cmsis_gcc.h **** {
 301:Drivers/CMSIS/Include/cmsis_gcc.h ****   __ASM volatile ("MSR faultmask, %0" : : "r" (faultMask) : "memory");
 302:Drivers/CMSIS/Include/cmsis_gcc.h **** }
 303:Drivers/CMSIS/Include/cmsis_gcc.h **** 
 304:Drivers/CMSIS/Include/cmsis_gcc.h **** #endif /* (__CORTEX_M >= 0x03U) */
 305:Drivers/CMSIS/Include/cmsis_gcc.h **** 
 306:Drivers/CMSIS/Include/cmsis_gcc.h **** 
 307:Drivers/CMSIS/Include/cmsis_gcc.h **** #if       (__CORTEX_M == 0x04U) || (__CORTEX_M == 0x07U)
 308:Drivers/CMSIS/Include/cmsis_gcc.h **** 
 309:Drivers/CMSIS/Include/cmsis_gcc.h **** /**
 310:Drivers/CMSIS/Include/cmsis_gcc.h ****   \brief   Get FPSCR
 311:Drivers/CMSIS/Include/cmsis_gcc.h ****   \details Returns the current value of the Floating Point Status/Control register.
 312:Drivers/CMSIS/Include/cmsis_gcc.h ****   \return               Floating Point Status/Control register value
 313:Drivers/CMSIS/Include/cmsis_gcc.h ****  */
 314:Drivers/CMSIS/Include/cmsis_gcc.h **** __attribute__( ( always_inline ) ) __STATIC_INLINE uint32_t __get_FPSCR(void)
ARM GAS  C:\Users\behun\AppData\Local\Temp\ccK2kcBn.s 			page 16


 315:Drivers/CMSIS/Include/cmsis_gcc.h **** {
 316:Drivers/CMSIS/Include/cmsis_gcc.h **** #if (__FPU_PRESENT == 1U) && (__FPU_USED == 1U)
 317:Drivers/CMSIS/Include/cmsis_gcc.h ****   uint32_t result;
 318:Drivers/CMSIS/Include/cmsis_gcc.h **** 
 319:Drivers/CMSIS/Include/cmsis_gcc.h ****   /* Empty asm statement works as a scheduling barrier */
 320:Drivers/CMSIS/Include/cmsis_gcc.h ****   __ASM volatile ("");
 321:Drivers/CMSIS/Include/cmsis_gcc.h ****   __ASM volatile ("VMRS %0, fpscr" : "=r" (result) );
 322:Drivers/CMSIS/Include/cmsis_gcc.h ****   __ASM volatile ("");
 323:Drivers/CMSIS/Include/cmsis_gcc.h ****   return(result);
 324:Drivers/CMSIS/Include/cmsis_gcc.h **** #else
 325:Drivers/CMSIS/Include/cmsis_gcc.h ****    return(0);
 326:Drivers/CMSIS/Include/cmsis_gcc.h **** #endif
 327:Drivers/CMSIS/Include/cmsis_gcc.h **** }
 328:Drivers/CMSIS/Include/cmsis_gcc.h **** 
 329:Drivers/CMSIS/Include/cmsis_gcc.h **** 
 330:Drivers/CMSIS/Include/cmsis_gcc.h **** /**
 331:Drivers/CMSIS/Include/cmsis_gcc.h ****   \brief   Set FPSCR
 332:Drivers/CMSIS/Include/cmsis_gcc.h ****   \details Assigns the given value to the Floating Point Status/Control register.
 333:Drivers/CMSIS/Include/cmsis_gcc.h ****   \param [in]    fpscr  Floating Point Status/Control value to set
 334:Drivers/CMSIS/Include/cmsis_gcc.h ****  */
 335:Drivers/CMSIS/Include/cmsis_gcc.h **** __attribute__( ( always_inline ) ) __STATIC_INLINE void __set_FPSCR(uint32_t fpscr)
 336:Drivers/CMSIS/Include/cmsis_gcc.h **** {
 337:Drivers/CMSIS/Include/cmsis_gcc.h **** #if (__FPU_PRESENT == 1U) && (__FPU_USED == 1U)
 338:Drivers/CMSIS/Include/cmsis_gcc.h ****   /* Empty asm statement works as a scheduling barrier */
 339:Drivers/CMSIS/Include/cmsis_gcc.h ****   __ASM volatile ("");
 340:Drivers/CMSIS/Include/cmsis_gcc.h ****   __ASM volatile ("VMSR fpscr, %0" : : "r" (fpscr) : "vfpcc");
 341:Drivers/CMSIS/Include/cmsis_gcc.h ****   __ASM volatile ("");
 342:Drivers/CMSIS/Include/cmsis_gcc.h **** #endif
 343:Drivers/CMSIS/Include/cmsis_gcc.h **** }
 344:Drivers/CMSIS/Include/cmsis_gcc.h **** 
 345:Drivers/CMSIS/Include/cmsis_gcc.h **** #endif /* (__CORTEX_M == 0x04U) || (__CORTEX_M == 0x07U) */
 346:Drivers/CMSIS/Include/cmsis_gcc.h **** 
 347:Drivers/CMSIS/Include/cmsis_gcc.h **** 
 348:Drivers/CMSIS/Include/cmsis_gcc.h **** 
 349:Drivers/CMSIS/Include/cmsis_gcc.h **** /*@} end of CMSIS_Core_RegAccFunctions */
 350:Drivers/CMSIS/Include/cmsis_gcc.h **** 
 351:Drivers/CMSIS/Include/cmsis_gcc.h **** 
 352:Drivers/CMSIS/Include/cmsis_gcc.h **** /* ##########################  Core Instruction Access  ######################### */
 353:Drivers/CMSIS/Include/cmsis_gcc.h **** /** \defgroup CMSIS_Core_InstructionInterface CMSIS Core Instruction Interface
 354:Drivers/CMSIS/Include/cmsis_gcc.h ****   Access to dedicated instructions
 355:Drivers/CMSIS/Include/cmsis_gcc.h ****   @{
 356:Drivers/CMSIS/Include/cmsis_gcc.h **** */
 357:Drivers/CMSIS/Include/cmsis_gcc.h **** 
 358:Drivers/CMSIS/Include/cmsis_gcc.h **** /* Define macros for porting to both thumb1 and thumb2.
 359:Drivers/CMSIS/Include/cmsis_gcc.h ****  * For thumb1, use low register (r0-r7), specified by constraint "l"
 360:Drivers/CMSIS/Include/cmsis_gcc.h ****  * Otherwise, use general registers, specified by constraint "r" */
 361:Drivers/CMSIS/Include/cmsis_gcc.h **** #if defined (__thumb__) && !defined (__thumb2__)
 362:Drivers/CMSIS/Include/cmsis_gcc.h **** #define __CMSIS_GCC_OUT_REG(r) "=l" (r)
 363:Drivers/CMSIS/Include/cmsis_gcc.h **** #define __CMSIS_GCC_USE_REG(r) "l" (r)
 364:Drivers/CMSIS/Include/cmsis_gcc.h **** #else
 365:Drivers/CMSIS/Include/cmsis_gcc.h **** #define __CMSIS_GCC_OUT_REG(r) "=r" (r)
 366:Drivers/CMSIS/Include/cmsis_gcc.h **** #define __CMSIS_GCC_USE_REG(r) "r" (r)
 367:Drivers/CMSIS/Include/cmsis_gcc.h **** #endif
 368:Drivers/CMSIS/Include/cmsis_gcc.h **** 
 369:Drivers/CMSIS/Include/cmsis_gcc.h **** /**
 370:Drivers/CMSIS/Include/cmsis_gcc.h ****   \brief   No Operation
 371:Drivers/CMSIS/Include/cmsis_gcc.h ****   \details No Operation does nothing. This instruction can be used for code alignment purposes.
ARM GAS  C:\Users\behun\AppData\Local\Temp\ccK2kcBn.s 			page 17


 372:Drivers/CMSIS/Include/cmsis_gcc.h ****  */
 373:Drivers/CMSIS/Include/cmsis_gcc.h **** __attribute__((always_inline)) __STATIC_INLINE void __NOP(void)
 212              		.loc 2 373 53 view .LVU41
 213              	.LBB7:
 374:Drivers/CMSIS/Include/cmsis_gcc.h **** {
 375:Drivers/CMSIS/Include/cmsis_gcc.h ****   __ASM volatile ("nop");
 214              		.loc 2 375 3 view .LVU42
 215              		.syntax unified
 216              	@ 375 "Drivers/CMSIS/Include/cmsis_gcc.h" 1
 217 008a 00BF     		nop
 218              	@ 0 "" 2
 219              		.thumb
 220              		.syntax unified
 221              	.LBE7:
 222              	.LBE6:
 243:Src/main.c    **** }
 223              		.loc 1 243 10 is_stmt 0 view .LVU43
 224 008c 0120     		movs	r0, #1
 225              	.LVL17:
 243:Src/main.c    **** }
 226              		.loc 1 243 10 view .LVU44
 227 008e 3CE0     		b	.L7
 228              	.LVL18:
 229              	.L9:
 211:Src/main.c    ****       else LCD_SCLK_0;
 230              		.loc 1 211 7 is_stmt 1 view .LVU45
 211:Src/main.c    ****       else LCD_SCLK_0;
 231              		.loc 1 211 10 is_stmt 0 view .LVU46
 232 0090 32B1     		cbz	r2, .L14
 211:Src/main.c    ****       else LCD_SCLK_0;
 233              		.loc 1 211 20 is_stmt 1 discriminator 1 view .LVU47
 234 0092 0122     		movs	r2, #1
 235              	.LVL19:
 211:Src/main.c    ****       else LCD_SCLK_0;
 236              		.loc 1 211 20 is_stmt 0 discriminator 1 view .LVU48
 237 0094 2021     		movs	r1, #32
 238 0096 1F48     		ldr	r0, .L20+4
 239              	.LVL20:
 211:Src/main.c    ****       else LCD_SCLK_0;
 240              		.loc 1 211 20 discriminator 1 view .LVU49
 241 0098 FFF7FEFF 		bl	HAL_GPIO_WritePin
 242              	.LVL21:
 243:Src/main.c    **** }
 243              		.loc 1 243 10 discriminator 1 view .LVU50
 244 009c 0120     		movs	r0, #1
 245 009e 34E0     		b	.L7
 246              	.LVL22:
 247              	.L14:
 212:Src/main.c    **** 
 248              		.loc 1 212 12 is_stmt 1 view .LVU51
 249 00a0 0022     		movs	r2, #0
 250              	.LVL23:
 212:Src/main.c    **** 
 251              		.loc 1 212 12 is_stmt 0 view .LVU52
 252 00a2 2021     		movs	r1, #32
 253 00a4 1B48     		ldr	r0, .L20+4
 254              	.LVL24:
ARM GAS  C:\Users\behun\AppData\Local\Temp\ccK2kcBn.s 			page 18


 212:Src/main.c    **** 
 255              		.loc 1 212 12 view .LVU53
 256 00a6 FFF7FEFF 		bl	HAL_GPIO_WritePin
 257              	.LVL25:
 243:Src/main.c    **** }
 258              		.loc 1 243 10 view .LVU54
 259 00aa 0120     		movs	r0, #1
 260 00ac 2DE0     		b	.L7
 261              	.LVL26:
 262              	.L8:
 217:Src/main.c    ****       else LCD_SID_0;
 263              		.loc 1 217 7 is_stmt 1 view .LVU55
 217:Src/main.c    ****       else LCD_SID_0;
 264              		.loc 1 217 10 is_stmt 0 view .LVU56
 265 00ae 32B1     		cbz	r2, .L15
 217:Src/main.c    ****       else LCD_SID_0;
 266              		.loc 1 217 20 is_stmt 1 discriminator 1 view .LVU57
 267 00b0 0122     		movs	r2, #1
 268              	.LVL27:
 217:Src/main.c    ****       else LCD_SID_0;
 269              		.loc 1 217 20 is_stmt 0 discriminator 1 view .LVU58
 270 00b2 8021     		movs	r1, #128
 271 00b4 1748     		ldr	r0, .L20+4
 272              	.LVL28:
 217:Src/main.c    ****       else LCD_SID_0;
 273              		.loc 1 217 20 discriminator 1 view .LVU59
 274 00b6 FFF7FEFF 		bl	HAL_GPIO_WritePin
 275              	.LVL29:
 243:Src/main.c    **** }
 276              		.loc 1 243 10 discriminator 1 view .LVU60
 277 00ba 0120     		movs	r0, #1
 278 00bc 25E0     		b	.L7
 279              	.LVL30:
 280              	.L15:
 218:Src/main.c    **** 
 281              		.loc 1 218 12 is_stmt 1 view .LVU61
 282 00be 0022     		movs	r2, #0
 283              	.LVL31:
 218:Src/main.c    **** 
 284              		.loc 1 218 12 is_stmt 0 view .LVU62
 285 00c0 8021     		movs	r1, #128
 286 00c2 1448     		ldr	r0, .L20+4
 287              	.LVL32:
 218:Src/main.c    **** 
 288              		.loc 1 218 12 view .LVU63
 289 00c4 FFF7FEFF 		bl	HAL_GPIO_WritePin
 290              	.LVL33:
 243:Src/main.c    **** }
 291              		.loc 1 243 10 view .LVU64
 292 00c8 0120     		movs	r0, #1
 293 00ca 1EE0     		b	.L7
 294              	.LVL34:
 295              	.L4:
 224:Src/main.c    ****       else LCD_RS_0;
 296              		.loc 1 224 7 is_stmt 1 view .LVU65
 224:Src/main.c    ****       else LCD_RS_0;
 297              		.loc 1 224 10 is_stmt 0 view .LVU66
ARM GAS  C:\Users\behun\AppData\Local\Temp\ccK2kcBn.s 			page 19


 298 00cc 32B1     		cbz	r2, .L16
 224:Src/main.c    ****       else LCD_RS_0;
 299              		.loc 1 224 20 is_stmt 1 discriminator 1 view .LVU67
 300 00ce 0122     		movs	r2, #1
 301              	.LVL35:
 224:Src/main.c    ****       else LCD_RS_0;
 302              		.loc 1 224 20 is_stmt 0 discriminator 1 view .LVU68
 303 00d0 1021     		movs	r1, #16
 304 00d2 1048     		ldr	r0, .L20+4
 305              	.LVL36:
 224:Src/main.c    ****       else LCD_RS_0;
 306              		.loc 1 224 20 discriminator 1 view .LVU69
 307 00d4 FFF7FEFF 		bl	HAL_GPIO_WritePin
 308              	.LVL37:
 243:Src/main.c    **** }
 309              		.loc 1 243 10 discriminator 1 view .LVU70
 310 00d8 0120     		movs	r0, #1
 311 00da 16E0     		b	.L7
 312              	.LVL38:
 313              	.L16:
 225:Src/main.c    **** 
 314              		.loc 1 225 12 is_stmt 1 view .LVU71
 315 00dc 0022     		movs	r2, #0
 316              	.LVL39:
 225:Src/main.c    **** 
 317              		.loc 1 225 12 is_stmt 0 view .LVU72
 318 00de 1021     		movs	r1, #16
 319 00e0 0C48     		ldr	r0, .L20+4
 320              	.LVL40:
 225:Src/main.c    **** 
 321              		.loc 1 225 12 view .LVU73
 322 00e2 FFF7FEFF 		bl	HAL_GPIO_WritePin
 323              	.LVL41:
 243:Src/main.c    **** }
 324              		.loc 1 243 10 view .LVU74
 325 00e6 0120     		movs	r0, #1
 326 00e8 0FE0     		b	.L7
 327              	.LVL42:
 328              	.L6:
 234:Src/main.c    ****       else LCD_RST_0;
 329              		.loc 1 234 7 is_stmt 1 view .LVU75
 234:Src/main.c    ****       else LCD_RST_0;
 330              		.loc 1 234 10 is_stmt 0 view .LVU76
 331 00ea 32B1     		cbz	r2, .L17
 234:Src/main.c    ****       else LCD_RST_0;
 332              		.loc 1 234 20 is_stmt 1 discriminator 1 view .LVU77
 333 00ec 0122     		movs	r2, #1
 334              	.LVL43:
 234:Src/main.c    ****       else LCD_RST_0;
 335              		.loc 1 234 20 is_stmt 0 discriminator 1 view .LVU78
 336 00ee 4021     		movs	r1, #64
 337 00f0 0848     		ldr	r0, .L20+4
 338              	.LVL44:
 234:Src/main.c    ****       else LCD_RST_0;
 339              		.loc 1 234 20 discriminator 1 view .LVU79
 340 00f2 FFF7FEFF 		bl	HAL_GPIO_WritePin
 341              	.LVL45:
ARM GAS  C:\Users\behun\AppData\Local\Temp\ccK2kcBn.s 			page 20


 243:Src/main.c    **** }
 342              		.loc 1 243 10 discriminator 1 view .LVU80
 343 00f6 0120     		movs	r0, #1
 344 00f8 07E0     		b	.L7
 345              	.LVL46:
 346              	.L17:
 235:Src/main.c    **** 
 347              		.loc 1 235 12 is_stmt 1 view .LVU81
 348 00fa 0022     		movs	r2, #0
 349              	.LVL47:
 235:Src/main.c    **** 
 350              		.loc 1 235 12 is_stmt 0 view .LVU82
 351 00fc 4021     		movs	r1, #64
 352 00fe 0548     		ldr	r0, .L20+4
 353              	.LVL48:
 235:Src/main.c    **** 
 354              		.loc 1 235 12 view .LVU83
 355 0100 FFF7FEFF 		bl	HAL_GPIO_WritePin
 356              	.LVL49:
 243:Src/main.c    **** }
 357              		.loc 1 243 10 view .LVU84
 358 0104 0120     		movs	r0, #1
 359 0106 00E0     		b	.L7
 360              	.LVL50:
 361              	.L18:
 243:Src/main.c    **** }
 362              		.loc 1 243 10 view .LVU85
 363 0108 0120     		movs	r0, #1
 364              	.LVL51:
 365              	.L7:
 244:Src/main.c    **** 
 366              		.loc 1 244 1 view .LVU86
 367 010a 06B0     		add	sp, sp, #24
 368              	.LCFI2:
 369              		.cfi_def_cfa_offset 16
 370              		@ sp needed
 371 010c 70BD     		pop	{r4, r5, r6, pc}
 372              	.L21:
 373 010e 00BF     		.align	2
 374              	.L20:
 375 0110 00100240 		.word	1073876992
 376 0114 00080140 		.word	1073809408
 377              		.cfi_endproc
 378              	.LFE68:
 380              		.section	.text.SystemClock_Config,"ax",%progbits
 381              		.align	1
 382              		.global	SystemClock_Config
 383              		.syntax unified
 384              		.thumb
 385              		.thumb_func
 386              		.fpu softvfp
 388              	SystemClock_Config:
 389              	.LFB67:
 132:Src/main.c    ****   RCC_OscInitTypeDef RCC_OscInitStruct = {0};
 390              		.loc 1 132 1 is_stmt 1 view -0
 391              		.cfi_startproc
 392              		@ args = 0, pretend = 0, frame = 88
ARM GAS  C:\Users\behun\AppData\Local\Temp\ccK2kcBn.s 			page 21


 393              		@ frame_needed = 0, uses_anonymous_args = 0
 394 0000 30B5     		push	{r4, r5, lr}
 395              	.LCFI3:
 396              		.cfi_def_cfa_offset 12
 397              		.cfi_offset 4, -12
 398              		.cfi_offset 5, -8
 399              		.cfi_offset 14, -4
 400 0002 97B0     		sub	sp, sp, #92
 401              	.LCFI4:
 402              		.cfi_def_cfa_offset 104
 133:Src/main.c    ****   RCC_ClkInitTypeDef RCC_ClkInitStruct = {0};
 403              		.loc 1 133 3 view .LVU88
 133:Src/main.c    ****   RCC_ClkInitTypeDef RCC_ClkInitStruct = {0};
 404              		.loc 1 133 22 is_stmt 0 view .LVU89
 405 0004 0024     		movs	r4, #0
 406 0006 0E94     		str	r4, [sp, #56]
 407 0008 0F94     		str	r4, [sp, #60]
 408 000a 1194     		str	r4, [sp, #68]
 134:Src/main.c    ****   RCC_PeriphCLKInitTypeDef PeriphClkInit = {0};
 409              		.loc 1 134 3 is_stmt 1 view .LVU90
 134:Src/main.c    ****   RCC_PeriphCLKInitTypeDef PeriphClkInit = {0};
 410              		.loc 1 134 22 is_stmt 0 view .LVU91
 411 000c 0794     		str	r4, [sp, #28]
 412 000e 0894     		str	r4, [sp, #32]
 413 0010 0994     		str	r4, [sp, #36]
 414 0012 0A94     		str	r4, [sp, #40]
 415 0014 0B94     		str	r4, [sp, #44]
 135:Src/main.c    **** 
 416              		.loc 1 135 3 is_stmt 1 view .LVU92
 135:Src/main.c    **** 
 417              		.loc 1 135 28 is_stmt 0 view .LVU93
 418 0016 0194     		str	r4, [sp, #4]
 419 0018 0294     		str	r4, [sp, #8]
 420 001a 0394     		str	r4, [sp, #12]
 421 001c 0494     		str	r4, [sp, #16]
 422 001e 0594     		str	r4, [sp, #20]
 423 0020 0694     		str	r4, [sp, #24]
 139:Src/main.c    ****   RCC_OscInitStruct.HSEState = RCC_HSE_ON;
 424              		.loc 1 139 3 is_stmt 1 view .LVU94
 139:Src/main.c    ****   RCC_OscInitStruct.HSEState = RCC_HSE_ON;
 425              		.loc 1 139 36 is_stmt 0 view .LVU95
 426 0022 0923     		movs	r3, #9
 427 0024 0C93     		str	r3, [sp, #48]
 140:Src/main.c    ****   RCC_OscInitStruct.HSEPredivValue = RCC_HSE_PREDIV_DIV1;
 428              		.loc 1 140 3 is_stmt 1 view .LVU96
 140:Src/main.c    ****   RCC_OscInitStruct.HSEPredivValue = RCC_HSE_PREDIV_DIV1;
 429              		.loc 1 140 30 is_stmt 0 view .LVU97
 430 0026 4FF48033 		mov	r3, #65536
 431 002a 0D93     		str	r3, [sp, #52]
 141:Src/main.c    ****   RCC_OscInitStruct.HSIState = RCC_HSI_ON;
 432              		.loc 1 141 3 is_stmt 1 view .LVU98
 142:Src/main.c    ****   RCC_OscInitStruct.LSIState = RCC_LSI_ON;
 433              		.loc 1 142 3 view .LVU99
 142:Src/main.c    ****   RCC_OscInitStruct.LSIState = RCC_LSI_ON;
 434              		.loc 1 142 30 is_stmt 0 view .LVU100
 435 002c 0122     		movs	r2, #1
 436 002e 1092     		str	r2, [sp, #64]
ARM GAS  C:\Users\behun\AppData\Local\Temp\ccK2kcBn.s 			page 22


 143:Src/main.c    ****   RCC_OscInitStruct.PLL.PLLState = RCC_PLL_ON;
 437              		.loc 1 143 3 is_stmt 1 view .LVU101
 143:Src/main.c    ****   RCC_OscInitStruct.PLL.PLLState = RCC_PLL_ON;
 438              		.loc 1 143 30 is_stmt 0 view .LVU102
 439 0030 1292     		str	r2, [sp, #72]
 144:Src/main.c    ****   RCC_OscInitStruct.PLL.PLLSource = RCC_PLLSOURCE_HSE;
 440              		.loc 1 144 3 is_stmt 1 view .LVU103
 144:Src/main.c    ****   RCC_OscInitStruct.PLL.PLLSource = RCC_PLLSOURCE_HSE;
 441              		.loc 1 144 34 is_stmt 0 view .LVU104
 442 0032 0225     		movs	r5, #2
 443 0034 1395     		str	r5, [sp, #76]
 145:Src/main.c    ****   RCC_OscInitStruct.PLL.PLLMUL = RCC_PLL_MUL9;
 444              		.loc 1 145 3 is_stmt 1 view .LVU105
 145:Src/main.c    ****   RCC_OscInitStruct.PLL.PLLMUL = RCC_PLL_MUL9;
 445              		.loc 1 145 35 is_stmt 0 view .LVU106
 446 0036 1493     		str	r3, [sp, #80]
 146:Src/main.c    ****   if (HAL_RCC_OscConfig(&RCC_OscInitStruct) != HAL_OK)
 447              		.loc 1 146 3 is_stmt 1 view .LVU107
 146:Src/main.c    ****   if (HAL_RCC_OscConfig(&RCC_OscInitStruct) != HAL_OK)
 448              		.loc 1 146 32 is_stmt 0 view .LVU108
 449 0038 4FF4E013 		mov	r3, #1835008
 450 003c 1593     		str	r3, [sp, #84]
 147:Src/main.c    ****   {
 451              		.loc 1 147 3 is_stmt 1 view .LVU109
 147:Src/main.c    ****   {
 452              		.loc 1 147 7 is_stmt 0 view .LVU110
 453 003e 0CA8     		add	r0, sp, #48
 454 0040 FFF7FEFF 		bl	HAL_RCC_OscConfig
 455              	.LVL52:
 153:Src/main.c    ****                               |RCC_CLOCKTYPE_PCLK1|RCC_CLOCKTYPE_PCLK2;
 456              		.loc 1 153 3 is_stmt 1 view .LVU111
 153:Src/main.c    ****                               |RCC_CLOCKTYPE_PCLK1|RCC_CLOCKTYPE_PCLK2;
 457              		.loc 1 153 31 is_stmt 0 view .LVU112
 458 0044 0F23     		movs	r3, #15
 459 0046 0793     		str	r3, [sp, #28]
 155:Src/main.c    ****   RCC_ClkInitStruct.AHBCLKDivider = RCC_SYSCLK_DIV1;
 460              		.loc 1 155 3 is_stmt 1 view .LVU113
 155:Src/main.c    ****   RCC_ClkInitStruct.AHBCLKDivider = RCC_SYSCLK_DIV1;
 461              		.loc 1 155 34 is_stmt 0 view .LVU114
 462 0048 0895     		str	r5, [sp, #32]
 156:Src/main.c    ****   RCC_ClkInitStruct.APB1CLKDivider = RCC_HCLK_DIV2;
 463              		.loc 1 156 3 is_stmt 1 view .LVU115
 156:Src/main.c    ****   RCC_ClkInitStruct.APB1CLKDivider = RCC_HCLK_DIV2;
 464              		.loc 1 156 35 is_stmt 0 view .LVU116
 465 004a 0994     		str	r4, [sp, #36]
 157:Src/main.c    ****   RCC_ClkInitStruct.APB2CLKDivider = RCC_HCLK_DIV1;
 466              		.loc 1 157 3 is_stmt 1 view .LVU117
 157:Src/main.c    ****   RCC_ClkInitStruct.APB2CLKDivider = RCC_HCLK_DIV1;
 467              		.loc 1 157 36 is_stmt 0 view .LVU118
 468 004c 4FF48063 		mov	r3, #1024
 469 0050 0A93     		str	r3, [sp, #40]
 158:Src/main.c    **** 
 470              		.loc 1 158 3 is_stmt 1 view .LVU119
 158:Src/main.c    **** 
 471              		.loc 1 158 36 is_stmt 0 view .LVU120
 472 0052 0B94     		str	r4, [sp, #44]
 161:Src/main.c    ****   {
ARM GAS  C:\Users\behun\AppData\Local\Temp\ccK2kcBn.s 			page 23


 473              		.loc 1 161 3 is_stmt 1 view .LVU121
 161:Src/main.c    ****   {
 474              		.loc 1 161 7 is_stmt 0 view .LVU122
 475 0054 2946     		mov	r1, r5
 476 0056 07A8     		add	r0, sp, #28
 477 0058 FFF7FEFF 		bl	HAL_RCC_ClockConfig
 478              	.LVL53:
 165:Src/main.c    ****   PeriphClkInit.UsbClockSelection = RCC_USBCLKSOURCE_PLL_DIV1_5;
 479              		.loc 1 165 3 is_stmt 1 view .LVU123
 165:Src/main.c    ****   PeriphClkInit.UsbClockSelection = RCC_USBCLKSOURCE_PLL_DIV1_5;
 480              		.loc 1 165 38 is_stmt 0 view .LVU124
 481 005c 1023     		movs	r3, #16
 482 005e 0193     		str	r3, [sp, #4]
 166:Src/main.c    ****   if (HAL_RCCEx_PeriphCLKConfig(&PeriphClkInit) != HAL_OK)
 483              		.loc 1 166 3 is_stmt 1 view .LVU125
 166:Src/main.c    ****   if (HAL_RCCEx_PeriphCLKConfig(&PeriphClkInit) != HAL_OK)
 484              		.loc 1 166 35 is_stmt 0 view .LVU126
 485 0060 0694     		str	r4, [sp, #24]
 167:Src/main.c    ****   {
 486              		.loc 1 167 3 is_stmt 1 view .LVU127
 167:Src/main.c    ****   {
 487              		.loc 1 167 7 is_stmt 0 view .LVU128
 488 0062 01A8     		add	r0, sp, #4
 489 0064 FFF7FEFF 		bl	HAL_RCCEx_PeriphCLKConfig
 490              	.LVL54:
 171:Src/main.c    **** 
 491              		.loc 1 171 1 view .LVU129
 492 0068 17B0     		add	sp, sp, #92
 493              	.LCFI5:
 494              		.cfi_def_cfa_offset 12
 495              		@ sp needed
 496 006a 30BD     		pop	{r4, r5, pc}
 497              		.cfi_endproc
 498              	.LFE67:
 500              		.section	.text.main,"ax",%progbits
 501              		.align	1
 502              		.global	main
 503              		.syntax unified
 504              		.thumb
 505              		.thumb_func
 506              		.fpu softvfp
 508              	main:
 509              	.LFB66:
  58:Src/main.c    ****   HAL_Init();
 510              		.loc 1 58 1 is_stmt 1 view -0
 511              		.cfi_startproc
 512              		@ args = 0, pretend = 0, frame = 0
 513              		@ frame_needed = 0, uses_anonymous_args = 0
 514 0000 70B5     		push	{r4, r5, r6, lr}
 515              	.LCFI6:
 516              		.cfi_def_cfa_offset 16
 517              		.cfi_offset 4, -16
 518              		.cfi_offset 5, -12
 519              		.cfi_offset 6, -8
 520              		.cfi_offset 14, -4
  59:Src/main.c    ****   SystemClock_Config();
 521              		.loc 1 59 3 view .LVU131
ARM GAS  C:\Users\behun\AppData\Local\Temp\ccK2kcBn.s 			page 24


 522 0002 FFF7FEFF 		bl	HAL_Init
 523              	.LVL55:
  60:Src/main.c    ****   MX_GPIO_Init();
 524              		.loc 1 60 3 view .LVU132
 525 0006 FFF7FEFF 		bl	SystemClock_Config
 526              	.LVL56:
  61:Src/main.c    ****   // MX_I2C1_Init();
 527              		.loc 1 61 3 view .LVU133
 528 000a FFF7FEFF 		bl	MX_GPIO_Init
 529              	.LVL57:
  67:Src/main.c    ****   u8g2_Setup_st7920_s_128x64_f(&u8g2, U8G2_R0, u8x8_byte_4wire_sw_spi, u8g2_gpio_and_delay_stm32); 
 530              		.loc 1 67 3 view .LVU134
 531 000e FFF7FEFF 		bl	MX_USB_DEVICE_Init
 532              	.LVL58:
  68:Src/main.c    ****   u8g2_InitDisplay(&u8g2);
 533              		.loc 1 68 3 view .LVU135
 534 0012 2B4C     		ldr	r4, .L36
 535 0014 2B4B     		ldr	r3, .L36+4
 536 0016 2C4A     		ldr	r2, .L36+8
 537 0018 2C49     		ldr	r1, .L36+12
 538 001a 2046     		mov	r0, r4
 539 001c FFF7FEFF 		bl	u8g2_Setup_st7920_s_128x64_f
 540              	.LVL59:
  69:Src/main.c    ****   u8g2_SetPowerSave(&u8g2, 0); // wake up display
 541              		.loc 1 69 3 view .LVU136
 542 0020 2046     		mov	r0, r4
 543 0022 FFF7FEFF 		bl	u8x8_InitDisplay
 544              	.LVL60:
  70:Src/main.c    ****   Logo();
 545              		.loc 1 70 3 view .LVU137
 546 0026 0021     		movs	r1, #0
 547 0028 2046     		mov	r0, r4
 548 002a FFF7FEFF 		bl	u8x8_SetPowerSave
 549              	.LVL61:
  71:Src/main.c    ****   HAL_Delay(5000);
 550              		.loc 1 71 3 view .LVU138
 551 002e FFF7FEFF 		bl	Logo
 552              	.LVL62:
  72:Src/main.c    **** 
 553              		.loc 1 72 3 view .LVU139
 554 0032 41F28830 		movw	r0, #5000
 555 0036 FFF7FEFF 		bl	HAL_Delay
 556              	.LVL63:
  74:Src/main.c    ****   void KeyGet(uint8_t port_id);
 557              		.loc 1 74 3 view .LVU140
  75:Src/main.c    ****   BUTTON_ID KeyProcess(void);
 558              		.loc 1 75 3 view .LVU141
  76:Src/main.c    ****   // void KeyManage(void);
 559              		.loc 1 76 3 view .LVU142
  79:Src/main.c    ****   uint32_t timeRefesh = HAL_GetTick();
 560              		.loc 1 79 3 view .LVU143
  79:Src/main.c    ****   uint32_t timeRefesh = HAL_GetTick();
 561              		.loc 1 79 23 is_stmt 0 view .LVU144
 562 003a FFF7FEFF 		bl	HAL_GetTick
 563              	.LVL64:
  80:Src/main.c    ****   uint32_t timeSend;
 564              		.loc 1 80 3 is_stmt 1 view .LVU145
ARM GAS  C:\Users\behun\AppData\Local\Temp\ccK2kcBn.s 			page 25


  80:Src/main.c    ****   uint32_t timeSend;
 565              		.loc 1 80 25 is_stmt 0 view .LVU146
 566 003e FFF7FEFF 		bl	HAL_GetTick
 567              	.LVL65:
 568 0042 0646     		mov	r6, r0
 569              	.LVL66:
  81:Src/main.c    ****   uint32_t timekey = HAL_GetTick();
 570              		.loc 1 81 3 is_stmt 1 view .LVU147
  82:Src/main.c    ****   uint8_t lampStatus = 0;
 571              		.loc 1 82 3 view .LVU148
  82:Src/main.c    ****   uint8_t lampStatus = 0;
 572              		.loc 1 82 22 is_stmt 0 view .LVU149
 573 0044 FFF7FEFF 		bl	HAL_GetTick
 574              	.LVL67:
  82:Src/main.c    ****   uint8_t lampStatus = 0;
 575              		.loc 1 82 22 view .LVU150
 576 0048 0446     		mov	r4, r0
 577              	.LVL68:
  83:Src/main.c    ****   while (1)
 578              		.loc 1 83 3 is_stmt 1 view .LVU151
  83:Src/main.c    ****   while (1)
 579              		.loc 1 83 11 is_stmt 0 view .LVU152
 580 004a 0025     		movs	r5, #0
 581 004c 0FE0     		b	.L25
 582              	.LVL69:
 583              	.L32:
  95:Src/main.c    ****           printf("KEY NEON press\n"); 
 584              		.loc 1 95 11 is_stmt 1 view .LVU153
  95:Src/main.c    ****           printf("KEY NEON press\n"); 
 585              		.loc 1 95 22 is_stmt 0 view .LVU154
 586 004e ED43     		mvns	r5, r5
 587              	.LVL70:
  95:Src/main.c    ****           printf("KEY NEON press\n"); 
 588              		.loc 1 95 22 view .LVU155
 589 0050 EDB2     		uxtb	r5, r5
 590              	.LVL71:
  96:Src/main.c    ****           break;
 591              		.loc 1 96 11 is_stmt 1 view .LVU156
 592 0052 1F48     		ldr	r0, .L36+16
 593 0054 FFF7FEFF 		bl	puts
 594              	.LVL72:
  97:Src/main.c    ****         case UV:
 595              		.loc 1 97 11 view .LVU157
 596              	.L27:
 110:Src/main.c    ****     }
 597              		.loc 1 110 7 view .LVU158
 110:Src/main.c    ****     }
 598              		.loc 1 110 17 is_stmt 0 view .LVU159
 599 0058 FFF7FEFF 		bl	HAL_GetTick
 600              	.LVL73:
 601 005c 0446     		mov	r4, r0
 602              	.LVL74:
 603              	.L26:
 112:Src/main.c    ****     //Interface_Component();
 604              		.loc 1 112 7 is_stmt 1 view .LVU160
 605 005e 2846     		mov	r0, r5
 606 0060 FFF7FEFF 		bl	Lamp_Status
ARM GAS  C:\Users\behun\AppData\Local\Temp\ccK2kcBn.s 			page 26


 607              	.LVL75:
 115:Src/main.c    ****     {
 608              		.loc 1 115 5 view .LVU161
 115:Src/main.c    ****     {
 609              		.loc 1 115 8 is_stmt 0 view .LVU162
 610 0064 FFF7FEFF 		bl	HAL_GetTick
 611              	.LVL76:
 115:Src/main.c    ****     {
 612              		.loc 1 115 22 view .LVU163
 613 0068 801B     		subs	r0, r0, r6
 115:Src/main.c    ****     {
 614              		.loc 1 115 7 view .LVU164
 615 006a 6428     		cmp	r0, #100
 616 006c 20D8     		bhi	.L35
 617              	.LVL77:
 618              	.L25:
  84:Src/main.c    ****   {
 619              		.loc 1 84 3 is_stmt 1 view .LVU165
  90:Src/main.c    ****     {
 620              		.loc 1 90 5 view .LVU166
  90:Src/main.c    ****     {
 621              		.loc 1 90 8 is_stmt 0 view .LVU167
 622 006e FFF7FEFF 		bl	HAL_GetTick
 623              	.LVL78:
  90:Src/main.c    ****     {
 624              		.loc 1 90 22 view .LVU168
 625 0072 001B     		subs	r0, r0, r4
  90:Src/main.c    ****     {
 626              		.loc 1 90 7 view .LVU169
 627 0074 0128     		cmp	r0, #1
 628 0076 F2D9     		bls	.L26
  92:Src/main.c    ****       {
 629              		.loc 1 92 7 is_stmt 1 view .LVU170
  92:Src/main.c    ****       {
 630              		.loc 1 92 14 is_stmt 0 view .LVU171
 631 0078 FFF7FEFF 		bl	KeyProcess
 632              	.LVL79:
  92:Src/main.c    ****       {
 633              		.loc 1 92 7 view .LVU172
 634 007c 0138     		subs	r0, r0, #1
 635 007e 0328     		cmp	r0, #3
 636 0080 EAD8     		bhi	.L27
 637 0082 01A3     		adr	r3, .L29
 638 0084 53F820F0 		ldr	pc, [r3, r0, lsl #2]
 639              		.p2align 2
 640              	.L29:
 641 0088 4F000000 		.word	.L32+1
 642 008c 99000000 		.word	.L31+1
 643 0090 A1000000 		.word	.L30+1
 644 0094 A9000000 		.word	.L28+1
 645              		.p2align 1
 646              	.L31:
  99:Src/main.c    ****           break;
 647              		.loc 1 99 11 is_stmt 1 view .LVU173
 648 0098 0E48     		ldr	r0, .L36+20
 649 009a FFF7FEFF 		bl	puts
 650              	.LVL80:
ARM GAS  C:\Users\behun\AppData\Local\Temp\ccK2kcBn.s 			page 27


 100:Src/main.c    ****         case FAN:
 651              		.loc 1 100 11 view .LVU174
 652 009e DBE7     		b	.L27
 653              	.L30:
 102:Src/main.c    ****           break;
 654              		.loc 1 102 11 view .LVU175
 655 00a0 0D48     		ldr	r0, .L36+24
 656 00a2 FFF7FEFF 		bl	puts
 657              	.LVL81:
 103:Src/main.c    ****         case SOCKET:
 658              		.loc 1 103 11 view .LVU176
 659 00a6 D7E7     		b	.L27
 660              	.L28:
 105:Src/main.c    ****           break;
 661              		.loc 1 105 11 view .LVU177
 662 00a8 0C48     		ldr	r0, .L36+28
 663 00aa FFF7FEFF 		bl	puts
 664              	.LVL82:
 106:Src/main.c    ****         default:
 665              		.loc 1 106 11 view .LVU178
 666 00ae D3E7     		b	.L27
 667              	.L35:
 117:Src/main.c    ****       timeRefesh = HAL_GetTick();
 668              		.loc 1 117 7 view .LVU179
 669 00b0 0348     		ldr	r0, .L36
 670 00b2 FFF7FEFF 		bl	u8g2_SendBuffer
 671              	.LVL83:
 118:Src/main.c    ****     }
 672              		.loc 1 118 7 view .LVU180
 118:Src/main.c    ****     }
 673              		.loc 1 118 20 is_stmt 0 view .LVU181
 674 00b6 FFF7FEFF 		bl	HAL_GetTick
 675              	.LVL84:
 676 00ba 0646     		mov	r6, r0
 677              	.LVL85:
 118:Src/main.c    ****     }
 678              		.loc 1 118 20 view .LVU182
 679 00bc D7E7     		b	.L25
 680              	.L37:
 681 00be 00BF     		.align	2
 682              	.L36:
 683 00c0 00000000 		.word	u8g2
 684 00c4 00000000 		.word	u8g2_gpio_and_delay_stm32
 685 00c8 00000000 		.word	u8x8_byte_4wire_sw_spi
 686 00cc 00000000 		.word	u8g2_cb_r0
 687 00d0 00000000 		.word	.LC0
 688 00d4 10000000 		.word	.LC1
 689 00d8 20000000 		.word	.LC2
 690 00dc 30000000 		.word	.LC3
 691              		.cfi_endproc
 692              	.LFE66:
 694              		.section	.text.Error_Handler,"ax",%progbits
 695              		.align	1
 696              		.global	Error_Handler
 697              		.syntax unified
 698              		.thumb
 699              		.thumb_func
ARM GAS  C:\Users\behun\AppData\Local\Temp\ccK2kcBn.s 			page 28


 700              		.fpu softvfp
 702              	Error_Handler:
 703              	.LFB69:
 251:Src/main.c    ****   /* USER CODE BEGIN Error_Handler_Debug */
 704              		.loc 1 251 1 is_stmt 1 view -0
 705              		.cfi_startproc
 706              		@ args = 0, pretend = 0, frame = 0
 707              		@ frame_needed = 0, uses_anonymous_args = 0
 708              		@ link register save eliminated.
 256:Src/main.c    **** 
 709              		.loc 1 256 1 view .LVU184
 710 0000 7047     		bx	lr
 711              		.cfi_endproc
 712              	.LFE69:
 714              		.section	.text._write,"ax",%progbits
 715              		.align	1
 716              		.global	_write
 717              		.syntax unified
 718              		.thumb
 719              		.thumb_func
 720              		.fpu softvfp
 722              	_write:
 723              	.LVL86:
 724              	.LFB70:
 276:Src/main.c    ****   if((file != STDOUT_FILENO) && (file != STDERR_FILENO))
 725              		.loc 1 276 1 view -0
 726              		.cfi_startproc
 727              		@ args = 0, pretend = 0, frame = 0
 728              		@ frame_needed = 0, uses_anonymous_args = 0
 276:Src/main.c    ****   if((file != STDOUT_FILENO) && (file != STDERR_FILENO))
 729              		.loc 1 276 1 is_stmt 0 view .LVU186
 730 0000 08B5     		push	{r3, lr}
 731              	.LCFI7:
 732              		.cfi_def_cfa_offset 8
 733              		.cfi_offset 3, -8
 734              		.cfi_offset 14, -4
 277:Src/main.c    ****   {
 735              		.loc 1 277 3 is_stmt 1 view .LVU187
 277:Src/main.c    ****   {
 736              		.loc 1 277 30 is_stmt 0 view .LVU188
 737 0002 0138     		subs	r0, r0, #1
 738              	.LVL87:
 277:Src/main.c    ****   {
 739              		.loc 1 277 5 view .LVU189
 740 0004 0128     		cmp	r0, #1
 741 0006 06D8     		bhi	.L43
 742 0008 0B46     		mov	r3, r1
 282:Src/main.c    ****   return status; 
 743              		.loc 1 282 3 is_stmt 1 view .LVU190
 282:Src/main.c    ****   return status; 
 744              		.loc 1 282 20 is_stmt 0 view .LVU191
 745 000a 1146     		mov	r1, r2
 746              	.LVL88:
 282:Src/main.c    ****   return status; 
 747              		.loc 1 282 20 view .LVU192
 748 000c 1846     		mov	r0, r3
 749              	.LVL89:
ARM GAS  C:\Users\behun\AppData\Local\Temp\ccK2kcBn.s 			page 29


 282:Src/main.c    ****   return status; 
 750              		.loc 1 282 20 view .LVU193
 751 000e FFF7FEFF 		bl	CDC_Transmit_FS
 752              	.LVL90:
 283:Src/main.c    **** }
 753              		.loc 1 283 3 is_stmt 1 view .LVU194
 754 0012 C0B2     		uxtb	r0, r0
 755              	.LVL91:
 756              	.L39:
 284:Src/main.c    **** 
 757              		.loc 1 284 1 is_stmt 0 view .LVU195
 758 0014 08BD     		pop	{r3, pc}
 759              	.LVL92:
 760              	.L43:
 279:Src/main.c    ****     return -1;
 761              		.loc 1 279 5 is_stmt 1 view .LVU196
 762 0016 FFF7FEFF 		bl	__errno
 763              	.LVL93:
 279:Src/main.c    ****     return -1;
 764              		.loc 1 279 11 is_stmt 0 view .LVU197
 765 001a 0923     		movs	r3, #9
 766 001c 0360     		str	r3, [r0]
 280:Src/main.c    ****   }
 767              		.loc 1 280 5 is_stmt 1 view .LVU198
 280:Src/main.c    ****   }
 768              		.loc 1 280 12 is_stmt 0 view .LVU199
 769 001e 4FF0FF30 		mov	r0, #-1
 770 0022 F7E7     		b	.L39
 771              		.cfi_endproc
 772              	.LFE70:
 774              		.comm	u8g2,128,4
 775              		.section	.rodata.main.str1.4,"aMS",%progbits,1
 776              		.align	2
 777              	.LC0:
 778 0000 4B455920 		.ascii	"KEY NEON press\000"
 778      4E454F4E 
 778      20707265 
 778      737300
 779 000f 00       		.space	1
 780              	.LC1:
 781 0010 4B455920 		.ascii	"KEY UV press\000"
 781      55562070 
 781      72657373 
 781      00
 782 001d 000000   		.space	3
 783              	.LC2:
 784 0020 4B455920 		.ascii	"KEY FAN press\000"
 784      46414E20 
 784      70726573 
 784      7300
 785 002e 0000     		.space	2
 786              	.LC3:
 787 0030 4B455920 		.ascii	"KEY SOCKET press\000"
 787      534F434B 
 787      45542070 
 787      72657373 
 787      00
ARM GAS  C:\Users\behun\AppData\Local\Temp\ccK2kcBn.s 			page 30


 788              		.text
 789              	.Letext0:
 790              		.file 3 "c:\\program files (x86)\\gnu tools arm embedded\\8 2019-q3-update\\arm-none-eabi\\include
 791              		.file 4 "c:\\program files (x86)\\gnu tools arm embedded\\8 2019-q3-update\\arm-none-eabi\\include
 792              		.file 5 "Drivers/CMSIS/Include/core_cm3.h"
 793              		.file 6 "Drivers/CMSIS/Device/ST/STM32F1xx/Include/system_stm32f1xx.h"
 794              		.file 7 "Drivers/CMSIS/Device/ST/STM32F1xx/Include/stm32f103xe.h"
 795              		.file 8 "c:\\program files (x86)\\gnu tools arm embedded\\8 2019-q3-update\\lib\\gcc\\arm-none-eab
 796              		.file 9 "c:\\program files (x86)\\gnu tools arm embedded\\8 2019-q3-update\\arm-none-eabi\\include
 797              		.file 10 "c:\\program files (x86)\\gnu tools arm embedded\\8 2019-q3-update\\arm-none-eabi\\includ
 798              		.file 11 "c:\\program files (x86)\\gnu tools arm embedded\\8 2019-q3-update\\arm-none-eabi\\includ
 799              		.file 12 "Drivers/STM32F1xx_HAL_Driver/Inc/stm32f1xx_hal_def.h"
 800              		.file 13 "Drivers/STM32F1xx_HAL_Driver/Inc/stm32f1xx_hal_rcc.h"
 801              		.file 14 "Drivers/STM32F1xx_HAL_Driver/Inc/stm32f1xx_hal_rcc_ex.h"
 802              		.file 15 "Drivers/STM32F1xx_HAL_Driver/Inc/stm32f1xx_hal_gpio.h"
 803              		.file 16 "Drivers/STM32F1xx_HAL_Driver/Inc/stm32f1xx_hal_dma.h"
 804              		.file 17 "Drivers/STM32F1xx_HAL_Driver/Inc/stm32f1xx_hal_i2c.h"
 805              		.file 18 "Drivers/STM32F1xx_HAL_Driver/Inc/stm32f1xx_hal_iwdg.h"
 806              		.file 19 "Drivers/STM32F1xx_HAL_Driver/Inc/stm32f1xx_hal_uart.h"
 807              		.file 20 "Drivers/STM32F1xx_HAL_Driver/Inc/stm32f1xx_hal.h"
 808              		.file 21 "Inc/i2c.h"
 809              		.file 22 "Inc/iwdg.h"
 810              		.file 23 "Inc/usart.h"
 811              		.file 24 "c:\\program files (x86)\\gnu tools arm embedded\\8 2019-q3-update\\arm-none-eabi\\includ
 812              		.file 25 "c:\\program files (x86)\\gnu tools arm embedded\\8 2019-q3-update\\arm-none-eabi\\includ
 813              		.file 26 "c:\\program files (x86)\\gnu tools arm embedded\\8 2019-q3-update\\arm-none-eabi\\includ
 814              		.file 27 "u8g2/csrc/u8x8.h"
 815              		.file 28 "u8g2/csrc/u8g2.h"
 816              		.file 29 "Inc/key.h"
 817              		.file 30 "Inc/usb_device.h"
 818              		.file 31 "Inc/userInterface.h"
 819              		.file 32 "<built-in>"
ARM GAS  C:\Users\behun\AppData\Local\Temp\ccK2kcBn.s 			page 31

